

Microchip MPLAB XC8 Assembler V3.10 build 20250813170317 
                                                                                               Thu Apr  2 20:48:24 2026

Microchip MPLAB XC8 C Compiler v3.10 (Free license) build 20250813170317 Og1 
     1                           	processor	16F873A
     2                           	pagewidth 120
     3                           	opt	flic
     4                           	psect	idataBANK1,global,class=CODE,space=0,delta=2,noexec
     5                           	psect	strings,global,class=STRING,space=0,delta=2,noexec
     6                           	psect	cinit,global,class=CODE,space=0,merge=1,delta=2
     7                           	psect	bssBANK0,global,class=BANK0,space=1,delta=1,noexec
     8                           	psect	bssBANK1,global,class=BANK1,space=1,delta=1,noexec
     9                           	psect	dataBANK1,global,class=BANK1,space=1,delta=1,noexec
    10                           	psect	inittext,global,class=CODE,space=0,delta=2
    11                           	psect	clrtext,global,class=CODE,space=0,delta=2
    12                           	psect	cstackBANK1,global,class=BANK1,space=1,delta=1,noexec
    13                           	psect	cstackCOMMON,global,class=COMMON,space=1,delta=1,noexec
    14                           	psect	cstackBANK0,global,class=BANK0,space=1,delta=1,noexec
    15                           	psect	maintext,global,class=CODE,space=0,split=1,delta=2
    16                           	psect	text1,local,class=CODE,space=0,merge=1,delta=2
    17                           	psect	text2,local,class=CODE,space=0,merge=1,delta=2
    18                           	psect	text3,local,class=CODE,space=0,merge=1,delta=2
    19                           	psect	text4,local,class=CODE,space=0,merge=1,delta=2
    20                           	psect	text5,local,class=CODE,space=0,merge=1,delta=2
    21                           	psect	text6,local,class=CODE,space=0,merge=1,delta=2,group=2
    22                           	psect	text7,local,class=CODE,space=0,merge=1,delta=2
    23                           	psect	text8,local,class=CODE,space=0,merge=1,delta=2,group=2
    24                           	psect	text9,local,class=CODE,space=0,merge=1,delta=2
    25                           	psect	text10,local,class=CODE,space=0,merge=1,delta=2,group=2
    26                           	psect	text11,local,class=CODE,space=0,merge=1,delta=2
    27                           	psect	text12,local,class=CODE,space=0,merge=1,delta=2
    28                           	psect	text13,local,class=CODE,space=0,merge=1,delta=2
    29                           	psect	text14,local,class=CODE,space=0,merge=1,delta=2
    30                           	psect	text15,local,class=CODE,space=0,merge=1,delta=2,group=1
    31                           	psect	text16,local,class=CODE,space=0,merge=1,delta=2
    32                           	psect	text17,local,class=CODE,space=0,merge=1,delta=2
    33                           	psect	text18,local,class=CODE,space=0,merge=1,delta=2
    34                           	psect	text19,local,class=CODE,space=0,merge=1,delta=2
    35                           	psect	text20,local,class=CODE,space=0,merge=1,delta=2
    36                           	psect	text21,local,class=CODE,space=0,merge=1,delta=2
    37                           	psect	text22,local,class=CODE,space=0,merge=1,delta=2
    38                           	psect	text23,local,class=CODE,space=0,merge=1,delta=2
    39                           	psect	intentry,global,class=CODE,space=0,delta=2
    40                           	psect	text24,local,class=CODE,space=0,merge=1,delta=2
    41                           	psect	config,global,abs,ovrld,class=CONFIG,space=4,delta=2,noexec
    42                           	dabs	1,0x7E,2
    43     0000                     
    44                           ; Generated 26/03/2025 GMT
    45                           ; 
    46                           ; Copyright © 2025, Microchip Technology Inc. and its subsidiaries ("Microchip")
    47                           ; All rights reserved.
    48                           ; 
    49                           ; This software is developed by Microchip Technology Inc. and its subsidiaries ("Microch
      +                          ip").
    50                           ; 
    51                           ; Redistribution and use in source and binary forms, with or without modification, are
    52                           ; permitted provided that the following conditions are met:
    53                           ; 
    54                           ;     1. Redistributions of source code must retain the above copyright notice, this lis
      +                          t of
    55                           ;        conditions and the following disclaimer.
    56                           ; 
    57                           ;     2. Redistributions in binary form must reproduce the above copyright notice, this 
      +                          list
    58                           ;        of conditions and the following disclaimer in the documentation and/or other
    59                           ;        materials provided with the distribution. Publication is not required when
    60                           ;        this file is used in an embedded application.
    61                           ; 
    62                           ;     3. Microchip's name may not be used to endorse or promote products derived from th
      +                          is
    63                           ;        software without specific prior written permission.
    64                           ; 
    65                           ; THIS SOFTWARE IS PROVIDED BY MICROCHIP "AS IS" AND ANY EXPRESS OR IMPLIED WARRANTIES,
    66                           ; INCLUDING, BUT NOT LIMITED TO, THE IMPLIED WARRANTIES OF MERCHANTABILITY AND FITNESS F
      +                          OR
    67                           ; PURPOSE ARE DISCLAIMED.  IN NO EVENT SHALL MICROCHIP BE LIABLE FOR ANY DIRECT, INDIREC
      +                          T,
    68                           ; INCIDENTAL, SPECIAL, EXEMPLARY, OR CONSEQUENTIAL DAMAGES (INCLUDING BUT NOT LIMITED TO
    69                           ; PROCUREMENT OF SUBSTITUTE GOODS OR SERVICES; LOSS OF USE, DATA OR PROFITS; OR BUSINESS
    70                           ; INTERRUPTION) HOWSOEVER CAUSED AND ON ANY THEORY OF LIABILITY, WHETHER IN CONTRACT, ST
      +                          RICT
    71                           ; LIABILITY, OR TORT (INCLUDING NEGLIGENCE OR OTHERWISE) ARISING IN ANY WAY OUT OF THE U
      +                          SE OF
    72                           ; THIS SOFTWARE, EVEN IF ADVISED OF THE POSSIBILITY OF SUCH DAMAGE.
    73                           ; 
    74                           ; 
    75                           ; Code-generator required, PIC16F873A Definitions
    76                           ; 
    77                           ; SFR Addresses
    78     0004                     fsr             equ	4
    79     0004                     fsr0            equ	4
    80     0000                     indf            equ	0
    81     0000                     indf0           equ	0
    82     0002                     pc              equ	2
    83     0002                     pcl             equ	2
    84     000A                     pclath          equ	10
    85     0003                     status          equ	3
    86     0000                     INDF            equ	0	;# 
    87     0001                     TMR0            equ	1	;# 
    88     0002                     PCL             equ	2	;# 
    89     0003                     STATUS          equ	3	;# 
    90     0004                     FSR             equ	4	;# 
    91     0005                     PORTA           equ	5	;# 
    92     0006                     PORTB           equ	6	;# 
    93     0007                     PORTC           equ	7	;# 
    94     000A                     PCLATH          equ	10	;# 
    95     000B                     INTCON          equ	11	;# 
    96     000C                     PIR1            equ	12	;# 
    97     000D                     PIR2            equ	13	;# 
    98     000E                     TMR1            equ	14	;# 
    99     000E                     TMR1L           equ	14	;# 
   100     000F                     TMR1H           equ	15	;# 
   101     0010                     T1CON           equ	16	;# 
   102     0011                     TMR2            equ	17	;# 
   103     0012                     T2CON           equ	18	;# 
   104     0013                     SSPBUF          equ	19	;# 
   105     0014                     SSPCON          equ	20	;# 
   106     0015                     CCPR1           equ	21	;# 
   107     0015                     CCPR1L          equ	21	;# 
   108     0016                     CCPR1H          equ	22	;# 
   109     0017                     CCP1CON         equ	23	;# 
   110     0018                     RCSTA           equ	24	;# 
   111     0019                     TXREG           equ	25	;# 
   112     001A                     RCREG           equ	26	;# 
   113     001B                     CCPR2           equ	27	;# 
   114     001B                     CCPR2L          equ	27	;# 
   115     001C                     CCPR2H          equ	28	;# 
   116     001D                     CCP2CON         equ	29	;# 
   117     001E                     ADRESH          equ	30	;# 
   118     001F                     ADCON0          equ	31	;# 
   119     0081                     OPTION_REG      equ	129	;# 
   120     0085                     TRISA           equ	133	;# 
   121     0086                     TRISB           equ	134	;# 
   122     0087                     TRISC           equ	135	;# 
   123     008C                     PIE1            equ	140	;# 
   124     008D                     PIE2            equ	141	;# 
   125     008E                     PCON            equ	142	;# 
   126     0091                     SSPCON2         equ	145	;# 
   127     0092                     PR2             equ	146	;# 
   128     0093                     SSPADD          equ	147	;# 
   129     0094                     SSPSTAT         equ	148	;# 
   130     0098                     TXSTA           equ	152	;# 
   131     0099                     SPBRG           equ	153	;# 
   132     009C                     CMCON           equ	156	;# 
   133     009D                     CVRCON          equ	157	;# 
   134     009E                     ADRESL          equ	158	;# 
   135     009F                     ADCON1          equ	159	;# 
   136     010C                     EEDATA          equ	268	;# 
   137     010D                     EEADR           equ	269	;# 
   138     010E                     EEDATH          equ	270	;# 
   139     010F                     EEADRH          equ	271	;# 
   140     018C                     EECON1          equ	396	;# 
   141     018D                     EECON2          equ	397	;# 
   142     0000                     INDF            equ	0	;# 
   143     0001                     TMR0            equ	1	;# 
   144     0002                     PCL             equ	2	;# 
   145     0003                     STATUS          equ	3	;# 
   146     0004                     FSR             equ	4	;# 
   147     0005                     PORTA           equ	5	;# 
   148     0006                     PORTB           equ	6	;# 
   149     0007                     PORTC           equ	7	;# 
   150     000A                     PCLATH          equ	10	;# 
   151     000B                     INTCON          equ	11	;# 
   152     000C                     PIR1            equ	12	;# 
   153     000D                     PIR2            equ	13	;# 
   154     000E                     TMR1            equ	14	;# 
   155     000E                     TMR1L           equ	14	;# 
   156     000F                     TMR1H           equ	15	;# 
   157     0010                     T1CON           equ	16	;# 
   158     0011                     TMR2            equ	17	;# 
   159     0012                     T2CON           equ	18	;# 
   160     0013                     SSPBUF          equ	19	;# 
   161     0014                     SSPCON          equ	20	;# 
   162     0015                     CCPR1           equ	21	;# 
   163     0015                     CCPR1L          equ	21	;# 
   164     0016                     CCPR1H          equ	22	;# 
   165     0017                     CCP1CON         equ	23	;# 
   166     0018                     RCSTA           equ	24	;# 
   167     0019                     TXREG           equ	25	;# 
   168     001A                     RCREG           equ	26	;# 
   169     001B                     CCPR2           equ	27	;# 
   170     001B                     CCPR2L          equ	27	;# 
   171     001C                     CCPR2H          equ	28	;# 
   172     001D                     CCP2CON         equ	29	;# 
   173     001E                     ADRESH          equ	30	;# 
   174     001F                     ADCON0          equ	31	;# 
   175     0081                     OPTION_REG      equ	129	;# 
   176     0085                     TRISA           equ	133	;# 
   177     0086                     TRISB           equ	134	;# 
   178     0087                     TRISC           equ	135	;# 
   179     008C                     PIE1            equ	140	;# 
   180     008D                     PIE2            equ	141	;# 
   181     008E                     PCON            equ	142	;# 
   182     0091                     SSPCON2         equ	145	;# 
   183     0092                     PR2             equ	146	;# 
   184     0093                     SSPADD          equ	147	;# 
   185     0094                     SSPSTAT         equ	148	;# 
   186     0098                     TXSTA           equ	152	;# 
   187     0099                     SPBRG           equ	153	;# 
   188     009C                     CMCON           equ	156	;# 
   189     009D                     CVRCON          equ	157	;# 
   190     009E                     ADRESL          equ	158	;# 
   191     009F                     ADCON1          equ	159	;# 
   192     010C                     EEDATA          equ	268	;# 
   193     010D                     EEADR           equ	269	;# 
   194     010E                     EEDATH          equ	270	;# 
   195     010F                     EEADRH          equ	271	;# 
   196     018C                     EECON1          equ	396	;# 
   197     018D                     EECON2          equ	397	;# 
   198                           
   199                           	psect	idataBANK1
   200     064D                     __pidataBANK1:
   201                           
   202                           ;initializer for _keyChars
   203     064D  340D               	retlw	low ((STR_1-__stringbase)| (0+32768))
   204     064E  3413               	retlw	low ((STR_2-__stringbase)| (0+32768))
   205     064F  3418               	retlw	low ((STR_3-__stringbase)| (0+32768))
   206     0650  3400               	retlw	0
   207     0651  341D               	retlw	low ((STR_4-__stringbase)| (0+32768))
   208     0652  3422               	retlw	low ((STR_5-__stringbase)| (0+32768))
   209     0653  3427               	retlw	low ((STR_6-__stringbase)| (0+32768))
   210     0654  3400               	retlw	0
   211     0655  3401               	retlw	low ((STR_7-__stringbase)| (0+32768))
   212     0656  342C               	retlw	low ((STR_8-__stringbase)| (0+32768))
   213     0657  3407               	retlw	low ((STR_9-__stringbase)| (0+32768))
   214     0658  3400               	retlw	0
   215     0659  3400               	retlw	0
   216     065A  3431               	retlw	low ((STR_10-__stringbase)| (0+32768))
   217     065B  3400               	retlw	0
   218     065C  3400               	retlw	0
   219     0007                     _PORTC          set	7
   220     0013                     _SSPBUF         set	19
   221     0014                     _SSPCONbits     set	20
   222     000B                     _INTCONbits     set	11
   223     000C                     _PIR1bits       set	12
   224     0014                     _SSPCON         set	20
   225     0006                     _PORTB          set	6
   226     0007                     _PORTCbits      set	7
   227     0005                     _PORTA          set	5
   228     0005                     _PORTAbits      set	5
   229     009F                     _ADCON1         set	159
   230     0087                     _TRISC          set	135
   231     0094                     _SSPSTATbits    set	148
   232     008C                     _PIE1bits       set	140
   233     0091                     _SSPCON2        set	145
   234     0094                     _SSPSTAT        set	148
   235     0093                     _SSPADD         set	147
   236     0087                     _TRISCbits      set	135
   237     0086                     _TRISB          set	134
   238     0085                     _TRISA          set	133
   239                           
   240                           	psect	strings
   241     0420                     __pstrings:
   242     0420                     stringtab:
   243     0420                     __stringtab:
   244                           
   245                           ;	String table - string pointers are 1 byte each
   246     0420  1BFF               	btfsc	btemp+1,7
   247     0421  2C2A               	ljmp	stringcode
   248     0422  1383               	bcf	3,7
   249     0423  187F               	btfsc	btemp+1,0
   250     0424  1783               	bsf	3,7
   251     0425  0800               	movf	0,w
   252     0426  0A84               	incf	4,f
   253     0427  1903               	skipnz
   254     0428  0AFF               	incf	btemp+1,f
   255     0429  0008               	return
   256     042A                     stringcode:
   257     042A                     stringdir:
   258     042A  3004               	movlw	high stringdir
   259     042B  008A               	movwf	10
   260     042C  0804               	movf	4,w
   261     042D  0A84               	incf	4,f
   262     042E  0782               	addwf	2,f
   263     042F                     __stringbase:
   264     042F  3400               	retlw	0
   265     0430                     __end_of__stringtab:
   266     0430                     STR_7:
   267     0430  3450               	retlw	80	;'P'
   268     0431  3451               	retlw	81	;'Q'
   269     0432  3452               	retlw	82	;'R'
   270     0433  3453               	retlw	83	;'S'
   271     0434  3437               	retlw	55	;'7'
   272     0435  3400               	retlw	0
   273     0436                     STR_9:
   274     0436  3457               	retlw	87	;'W'
   275     0437  3458               	retlw	88	;'X'
   276     0438  3459               	retlw	89	;'Y'
   277     0439  345A               	retlw	90	;'Z'
   278     043A  3439               	retlw	57	;'9'
   279     043B  3400               	retlw	0
   280     043C                     STR_1:
   281     043C  3431               	retlw	49	;'1'
   282     043D  342E               	retlw	46	;'.'
   283     043E  342C               	retlw	44	;','
   284     043F  3421               	retlw	33	;'!'
   285     0440  343F               	retlw	63	;'?'
   286     0441  3400               	retlw	0
   287     0442                     STR_2:
   288     0442  3441               	retlw	65	;'A'
   289     0443  3442               	retlw	66	;'B'
   290     0444  3443               	retlw	67	;'C'
   291     0445  3432               	retlw	50	;'2'
   292     0446  3400               	retlw	0
   293     0447                     STR_3:
   294     0447  3444               	retlw	68	;'D'
   295     0448  3445               	retlw	69	;'E'
   296     0449  3446               	retlw	70	;'F'
   297     044A  3433               	retlw	51	;'3'
   298     044B  3400               	retlw	0
   299     044C                     STR_4:
   300     044C  3447               	retlw	71	;'G'
   301     044D  3448               	retlw	72	;'H'
   302     044E  3449               	retlw	73	;'I'
   303     044F  3434               	retlw	52	;'4'
   304     0450  3400               	retlw	0
   305     0451                     STR_5:
   306     0451  344A               	retlw	74	;'J'
   307     0452  344B               	retlw	75	;'K'
   308     0453  344C               	retlw	76	;'L'
   309     0454  3435               	retlw	53	;'5'
   310     0455  3400               	retlw	0
   311     0456                     STR_6:
   312     0456  344D               	retlw	77	;'M'
   313     0457  344E               	retlw	78	;'N'
   314     0458  344F               	retlw	79	;'O'
   315     0459  3436               	retlw	54	;'6'
   316     045A  3400               	retlw	0
   317     045B                     STR_8:
   318     045B  3454               	retlw	84	;'T'
   319     045C  3455               	retlw	85	;'U'
   320     045D  3456               	retlw	86	;'V'
   321     045E  3438               	retlw	56	;'8'
   322     045F  3400               	retlw	0
   323     0460                     STR_10:
   324     0460  3420               	retlw	32	;' '
   325     0461  3430               	retlw	48	;'0'
   326     0462  3400               	retlw	0
   327                           
   328                           	psect	cinit
   329     0011                     start_initialization:	
   330                           ; #config settings
   331                           
   332     0011                     __initialization:
   333                           
   334                           ; Initialize objects allocated to BANK1
   335     0011  1383               	bcf	3,7	;select IRP bank0
   336     0012  30CE               	movlw	low (__pdataBANK1+16)
   337     0013  00FD               	movwf	btemp+-1
   338     0014  3006               	movlw	high __pidataBANK1
   339     0015  00FE               	movwf	btemp
   340     0016  304D               	movlw	low __pidataBANK1
   341     0017  00FF               	movwf	btemp+1
   342     0018  30BE               	movlw	low __pdataBANK1
   343     0019  0084               	movwf	4
   344     001A  118A  2640  118A   	fcall	init_ram0
   345                           
   346                           ; Clear objects allocated to BANK1
   347     001D  30A0               	movlw	low __pbssBANK1
   348     001E  0084               	movwf	4
   349     001F  30BE               	movlw	low (__pbssBANK1+30)
   350     0020  118A  2685  118A   	fcall	clear_ram0
   351                           
   352                           ; Clear objects allocated to BANK0
   353     0023  3020               	movlw	low __pbssBANK0
   354     0024  0084               	movwf	4
   355     0025  304C               	movlw	low (__pbssBANK0+44)
   356     0026  118A  2685  118A   	fcall	clear_ram0
   357     0029                     end_of_initialization:	
   358                           ;End of C runtime variable initialization code
   359                           
   360     0029                     __end_of__initialization:
   361     0029  0183               	clrf	3
   362     002A  118A  2920         	ljmp	_main	;jump to C main() function
   363                           
   364                           	psect	bssBANK0
   365     0020                     __pbssBANK0:
   366     0020                     _tapTimer:
   367     0020                     	ds	2
   368     0022                     _refreshFlag:
   369     0022                     	ds	1
   370     0023                     _newMsgFlag:
   371     0023                     	ds	1
   372     0024                     _rxState:
   373     0024                     	ds	1
   374     0025                     _rxIdx:
   375     0025                     	ds	1
   376     0026                     _rxExpected:
   377     0026                     	ds	1
   378     0027                     _txIdx:
   379     0027                     	ds	1
   380     0028                     _txLen:
   381     0028                     	ds	1
   382     0029                     _tapIndex:
   383     0029                     	ds	1
   384     002A                     _lastKey:
   385     002A                     	ds	1
   386     002B                     _uppercase:
   387     002B                     	ds	1
   388     002C                     _sendLen:
   389     002C                     	ds	1
   390     002D                     _cursorPos:
   391     002D                     	ds	1
   392     002E                     _recvBuf:
   393     002E                     	ds	15
   394     003D                     _sendBuf:
   395     003D                     	ds	15
   396                           
   397                           	psect	bssBANK1
   398     00A0                     __pbssBANK1:
   399     00A0                     _rxTmp:
   400     00A0                     	ds	15
   401     00AF                     _txBuf:
   402     00AF                     	ds	15
   403                           
   404                           	psect	dataBANK1
   405     00BE                     __pdataBANK1:
   406     00BE                     _keyChars:
   407     00BE                     	ds	16
   408                           
   409                           	psect	inittext
   410     063C                     init_fetch0:	
   411                           ;	Called with low address in FSR and high address in W
   412                           
   413     063C  087E               	movf	btemp,w
   414     063D  008A               	movwf	10
   415     063E  087F               	movf	btemp+1,w
   416     063F  0082               	movwf	2
   417     0640                     init_ram0:	
   418                           ;Called with:
   419                           ;	high address of idata address in btemp 
   420                           ;	low address of idata address in btemp+1 
   421                           ;	low address of data in FSR
   422                           ;	high address + 1 of data in btemp-1
   423                           
   424     0640  118A  263C  118A   	fcall	init_fetch0
   425     0643  0080               	movwf	0
   426     0644  0A84               	incf	4,f
   427     0645  0804               	movf	4,w
   428     0646  067D               	xorwf	btemp+-1,w
   429     0647  1903               	btfsc	3,2
   430     0648  3400               	retlw	0
   431     0649  0AFF               	incf	btemp+1,f
   432     064A  1903               	btfsc	3,2
   433     064B  0AFE               	incf	btemp,f
   434     064C  2E40               	goto	init_ram0
   435                           
   436                           	psect	clrtext
   437     0685                     clear_ram0:	
   438                           ;	Called with FSR containing the base address, and
   439                           ;	W with the last address+1
   440                           
   441     0685  0064               	clrwdt	;clear the watchdog before getting into this loop
   442     0686                     clrloop0:
   443     0686  0180               	clrf	0	;clear RAM location pointed to by FSR
   444     0687  0A84               	incf	4,f	;increment pointer
   445     0688  0604               	xorwf	4,w	;XOR with final address
   446     0689  1903               	btfsc	3,2	;have we reached the end yet?
   447     068A  3400               	retlw	0	;all done for this memory range, return
   448     068B  0604               	xorwf	4,w	;XOR again to restore value
   449     068C  2E86               	goto	clrloop0	;do the next byte
   450                           
   451                           	psect	cstackBANK1
   452     00CE                     __pcstackBANK1:
   453     00CE                     ??_main:
   454                           
   455                           ; 1 bytes @ 0x0
   456     00CE                     	ds	2
   457     00D0                     main@prevKey:
   458                           
   459                           ; 1 bytes @ 0x2
   460     00D0                     	ds	1
   461     00D1                     main@key:
   462                           
   463                           ; 1 bytes @ 0x3
   464     00D1                     	ds	1
   465                           
   466                           	psect	cstackCOMMON
   467     0000                     __pcstackCOMMON:
   468     0000                     ??_strlen:
   469     0000                     ??_memcpy:	
   470                           ; 1 bytes @ 0x0
   471                           
   472     0000                     ??_memset:	
   473                           ; 1 bytes @ 0x0
   474                           
   475     0000                     ??_lcd_char:	
   476                           ; 1 bytes @ 0x0
   477                           
   478     0000                     ??_lcd_set_cursor:	
   479                           ; 1 bytes @ 0x0
   480                           
   481     0000                     ??_I2C_Slave_Init:	
   482                           ; 1 bytes @ 0x0
   483                           
   484     0000                     ??_text_replace_prev_char:	
   485                           ; 1 bytes @ 0x0
   486                           
   487     0000                     ??_text_clear_send:	
   488                           ; 1 bytes @ 0x0
   489                           
   490     0000                     ??_multitap_commit:	
   491                           ; 1 bytes @ 0x0
   492                           
   493     0000                     ??___awmod:	
   494                           ; 1 bytes @ 0x0
   495                           
   496     0000                     ??i1_memcpy:	
   497                           ; 1 bytes @ 0x0
   498                           
   499                           
   500                           	psect	cstackBANK0
   501     004C                     __pcstackBANK0:	
   502                           ; 1 bytes @ 0x0
   503                           
   504     004C                     ?_lcd_pulse_enable:
   505     004C                     ?_lcd_send_nibble:	
   506                           ; 1 bytes @ 0x0
   507                           
   508     004C                     ?_lcd_cmd:	
   509                           ; 1 bytes @ 0x0
   510                           
   511     004C                     ?_lcd_char:	
   512                           ; 1 bytes @ 0x0
   513                           
   514     004C                     ?_lcd_init:	
   515                           ; 1 bytes @ 0x0
   516                           
   517     004C                     ?_lcd_refresh:	
   518                           ; 1 bytes @ 0x0
   519                           
   520     004C                     ?_kb_scan:	
   521                           ; 1 bytes @ 0x0
   522                           
   523     004C                     ?_I2C_Slave_Init:	
   524                           ; 1 bytes @ 0x0
   525                           
   526     004C                     ?_ISR:	
   527                           ; 1 bytes @ 0x0
   528                           
   529     004C                     ?_text_insert_char:	
   530                           ; 1 bytes @ 0x0
   531                           
   532     004C                     ?_text_replace_prev_char:	
   533                           ; 1 bytes @ 0x0
   534                           
   535     004C                     ?_text_delete:	
   536                           ; 1 bytes @ 0x0
   537                           
   538     004C                     ?_text_clear_send:	
   539                           ; 1 bytes @ 0x0
   540                           
   541     004C                     ?_multitap_commit:	
   542                           ; 1 bytes @ 0x0
   543                           
   544     004C                     ?_apply_case:	
   545                           ; 1 bytes @ 0x0
   546                           
   547     004C                     ?_process_key:	
   548                           ; 1 bytes @ 0x0
   549                           
   550     004C                     ?_main:	
   551                           ; 1 bytes @ 0x0
   552                           
   553     004C                     ?i1_memcpy:	
   554                           ; 1 bytes @ 0x0
   555                           
   556     004C                     i1memcpy@d1:	
   557                           ; 1 bytes @ 0x0
   558                           
   559                           
   560                           ; 1 bytes @ 0x0
   561     004C                     	ds	1
   562     004D                     i1memcpy@s1:
   563                           
   564                           ; 1 bytes @ 0x1
   565     004D                     	ds	1
   566     004E                     i1memcpy@n:
   567                           
   568                           ; 2 bytes @ 0x2
   569     004E                     	ds	2
   570     0050                     i1memcpy@tmp:
   571                           
   572                           ; 1 bytes @ 0x4
   573     0050                     	ds	1
   574     0051                     i1memcpy@d:
   575                           
   576                           ; 1 bytes @ 0x5
   577     0051                     	ds	1
   578     0052                     i1memcpy@s:
   579                           
   580                           ; 1 bytes @ 0x6
   581     0052                     	ds	1
   582     0053                     ??_ISR:
   583                           
   584                           ; 1 bytes @ 0x7
   585     0053                     	ds	3
   586     0056                     ISR@status:
   587                           
   588                           ; 1 bytes @ 0xA
   589     0056                     	ds	1
   590     0057                     ISR@data:
   591                           
   592                           ; 1 bytes @ 0xB
   593     0057                     	ds	1
   594     0058                     ?_memcpy:
   595     0058                     ?_memset:	
   596                           ; 1 bytes @ 0xC
   597                           
   598     0058                     ?_buzzer_beep:	
   599                           ; 1 bytes @ 0xC
   600                           
   601     0058                     ?_strlen:	
   602                           ; 1 bytes @ 0xC
   603                           
   604     0058                     ?___awmod:	
   605                           ; 2 bytes @ 0xC
   606                           
   607     0058                     memcpy@d1:	
   608                           ; 2 bytes @ 0xC
   609                           
   610     0058                     memset@dest:	
   611                           ; 1 bytes @ 0xC
   612                           
   613     0058                     buzzer_beep@duration_ms:	
   614                           ; 1 bytes @ 0xC
   615                           
   616     0058                     ___awmod@divisor:	
   617                           ; 2 bytes @ 0xC
   618                           
   619     0058                     strlen@s:	
   620                           ; 2 bytes @ 0xC
   621                           
   622     0058                     ??_lcd_pulse_enable:	
   623                           ; 2 bytes @ 0xC
   624                           
   625     0058                     ??_kb_scan:	
   626                           ; 1 bytes @ 0xC
   627                           
   628     0058                     ??_text_delete:	
   629                           ; 1 bytes @ 0xC
   630                           
   631     0058                     ??_apply_case:	
   632                           ; 1 bytes @ 0xC
   633                           
   634                           
   635                           ; 1 bytes @ 0xC
   636     0058                     	ds	1
   637     0059                     kb_scan@cols:
   638     0059                     memcpy@s1:	
   639                           ; 1 bytes @ 0xD
   640                           
   641     0059                     memset@c:	
   642                           ; 1 bytes @ 0xD
   643                           
   644     0059                     ??_lcd_send_nibble:	
   645                           ; 2 bytes @ 0xD
   646                           
   647                           
   648                           ; 1 bytes @ 0xD
   649     0059                     	ds	1
   650     005A                     lcd_send_nibble@nibble:
   651     005A                     kb_scan@row:	
   652                           ; 1 bytes @ 0xE
   653                           
   654     005A                     text_delete@i:	
   655                           ; 1 bytes @ 0xE
   656                           
   657     005A                     _apply_case$441:	
   658                           ; 1 bytes @ 0xE
   659                           
   660     005A                     ___awmod@dividend:	
   661                           ; 2 bytes @ 0xE
   662                           
   663     005A                     memcpy@n:	
   664                           ; 2 bytes @ 0xE
   665                           
   666     005A                     strlen@a:	
   667                           ; 2 bytes @ 0xE
   668                           
   669     005A                     ??_buzzer_beep:	
   670                           ; 2 bytes @ 0xE
   671                           
   672                           
   673                           ; 1 bytes @ 0xE
   674     005A                     	ds	1
   675     005B                     ?_lcd_send_byte:
   676     005B                     lcd_send_byte@data:	
   677                           ; 1 bytes @ 0xF
   678                           
   679     005B                     kb_scan@col:	
   680                           ; 1 bytes @ 0xF
   681                           
   682     005B                     memset@n:	
   683                           ; 1 bytes @ 0xF
   684                           
   685                           
   686                           ; 2 bytes @ 0xF
   687     005B                     	ds	1
   688     005C                     apply_case@c:
   689     005C                     ___awmod@counter:	
   690                           ; 1 bytes @ 0x10
   691                           
   692     005C                     memcpy@tmp:	
   693                           ; 1 bytes @ 0x10
   694                           
   695     005C                     ??_lcd_send_byte:	
   696                           ; 1 bytes @ 0x10
   697                           
   698                           
   699                           ; 1 bytes @ 0x10
   700     005C                     	ds	1
   701     005D                     lcd_send_byte@rs:
   702     005D                     text_replace_prev_char@c:	
   703                           ; 1 bytes @ 0x11
   704                           
   705     005D                     ___awmod@sign:	
   706                           ; 1 bytes @ 0x11
   707                           
   708     005D                     memcpy@d:	
   709                           ; 1 bytes @ 0x11
   710                           
   711     005D                     memset@p:	
   712                           ; 1 bytes @ 0x11
   713                           
   714     005D                     ??_text_insert_char:	
   715                           ; 1 bytes @ 0x11
   716                           
   717                           
   718                           ; 1 bytes @ 0x11
   719     005D                     	ds	1
   720     005E                     lcd_char@c:
   721     005E                     text_insert_char@c:	
   722                           ; 1 bytes @ 0x12
   723                           
   724     005E                     memcpy@s:	
   725                           ; 1 bytes @ 0x12
   726                           
   727     005E                     ??_lcd_cmd:	
   728                           ; 1 bytes @ 0x12
   729                           
   730                           
   731                           ; 1 bytes @ 0x12
   732     005E                     	ds	1
   733     005F                     text_insert_char@i:
   734                           
   735                           ; 1 bytes @ 0x13
   736     005F                     	ds	1
   737     0060                     lcd_cmd@cmd:
   738                           
   739                           ; 1 bytes @ 0x14
   740     0060                     	ds	1
   741     0061                     ?_lcd_set_cursor:
   742     0061                     lcd_set_cursor@row:	
   743                           ; 1 bytes @ 0x15
   744                           
   745     0061                     ??_lcd_init:	
   746                           ; 1 bytes @ 0x15
   747                           
   748                           
   749                           ; 1 bytes @ 0x15
   750     0061                     	ds	1
   751     0062                     _lcd_set_cursor$356:
   752                           
   753                           ; 2 bytes @ 0x16
   754     0062                     	ds	2
   755     0064                     lcd_set_cursor@col:
   756                           
   757                           ; 1 bytes @ 0x18
   758     0064                     	ds	1
   759     0065                     ??_lcd_refresh:
   760                           
   761                           ; 1 bytes @ 0x19
   762     0065                     	ds	2
   763     0067                     lcd_refresh@rLen:
   764                           
   765                           ; 1 bytes @ 0x1B
   766     0067                     	ds	1
   767     0068                     _lcd_refresh$361:
   768                           
   769                           ; 2 bytes @ 0x1C
   770     0068                     	ds	2
   771     006A                     _lcd_refresh$363:
   772                           
   773                           ; 2 bytes @ 0x1E
   774     006A                     	ds	2
   775     006C                     lcd_refresh@i:
   776                           
   777                           ; 1 bytes @ 0x20
   778     006C                     	ds	1
   779     006D                     ??_process_key:
   780                           
   781                           ; 1 bytes @ 0x21
   782     006D                     	ds	2
   783     006F                     process_key@len:
   784                           
   785                           ; 1 bytes @ 0x23
   786     006F                     	ds	1
   787     0070                     process_key@chars:
   788                           
   789                           ; 1 bytes @ 0x24
   790     0070                     	ds	1
   791     0071                     process_key@key:
   792                           
   793                           ; 1 bytes @ 0x25
   794     0071                     	ds	1
   795                           
   796                           	psect	maintext
   797     0120                     __pmaintext:	
   798 ;;
   799 ;;Main: autosize = 0, tempsize = 2, incstack = 0, save=0
   800 ;;
   801 ;; *************** function _main *****************
   802 ;; Defined at:
   803 ;;		line 433 in file "main.c"
   804 ;; Parameters:    Size  Location     Type
   805 ;;		None
   806 ;; Auto vars:     Size  Location     Type
   807 ;;  key             1    3[BANK1 ] unsigned char 
   808 ;;  prevKey         1    2[BANK1 ] unsigned char 
   809 ;; Return value:  Size  Location     Type
   810 ;;                  1    wreg      void 
   811 ;; Registers used:
   812 ;;		wreg, fsr0l, fsr0h, status,2, status,0, pclath, btemp1, cstack
   813 ;; Tracked objects:
   814 ;;		On entry : B00/0
   815 ;;		On exit  : 0/0
   816 ;;		Unchanged: 0/0
   817 ;; Data sizes:     COMMON   BANK0   BANK1
   818 ;;      Params:         0       0       0
   819 ;;      Locals:         0       0       2
   820 ;;      Temps:          0       0       2
   821 ;;      Totals:         0       0       4
   822 ;;Total ram usage:        4 bytes
   823 ;; Hardware stack levels required when called: 7
   824 ;; This function calls:
   825 ;;		_I2C_Slave_Init
   826 ;;		_buzzer_beep
   827 ;;		_kb_scan
   828 ;;		_lcd_init
   829 ;;		_lcd_refresh
   830 ;;		_memset
   831 ;;		_multitap_commit
   832 ;;		_process_key
   833 ;; This function is called by:
   834 ;;		Startup code after reset
   835 ;; This function uses a non-reentrant model
   836 ;;
   837                           
   838     0120                     _main:	
   839                           ;psect for function _main
   840                           
   841     0120                     l2319:	
   842                           ;incstack = 0
   843                           ; Regs used in _main: [wreg-fsr0h+status,2+status,0+pclath+btemp1+cstack]
   844                           
   845                           
   846                           ;main.c: 435:     TRISA = 0x00;
   847     0120  1683               	bsf	3,5	;RP0=1, select bank1
   848     0121  1303               	bcf	3,6	;RP1=0, select bank1
   849     0122  0185               	clrf	5	;volatile
   850     0123                     l2321:
   851                           
   852                           ;main.c: 436:     TRISB = 0xF0;
   853     0123  30F0               	movlw	240
   854     0124  0086               	movwf	6	;volatile
   855     0125                     l2323:
   856                           
   857                           ;main.c: 437:     TRISC = 0x18;
   858     0125  3018               	movlw	24
   859     0126  0087               	movwf	7	;volatile
   860                           
   861                           ;main.c: 438:     PORTA = 0x00;
   862     0127  1283               	bcf	3,5	;RP0=0, select bank0
   863     0128  1303               	bcf	3,6	;RP1=0, select bank0
   864     0129  0185               	clrf	5	;volatile
   865     012A                     l2325:
   866                           
   867                           ;main.c: 439:     PORTB = 0x0F;
   868     012A  300F               	movlw	15
   869     012B  0086               	movwf	6	;volatile
   870                           
   871                           ;main.c: 440:     PORTC = 0x00;
   872     012C  0187               	clrf	7	;volatile
   873     012D                     l2327:
   874                           
   875                           ;main.c: 442:     ADCON1 = 0x07;
   876     012D  3007               	movlw	7
   877     012E  1683               	bsf	3,5	;RP0=1, select bank1
   878     012F  1303               	bcf	3,6	;RP1=0, select bank1
   879     0130  009F               	movwf	31	;volatile
   880     0131                     l2329:
   881                           
   882                           ;main.c: 445:     lcd_init();
   883     0131  118A  236A  118A   	fcall	_lcd_init
   884     0134                     l2331:
   885                           
   886                           ;main.c: 446:     I2C_Slave_Init();
   887     0134  118A  25DE  118A   	fcall	_I2C_Slave_Init
   888     0137                     l2333:
   889                           
   890                           ;main.c: 449:     memset(sendBuf, 0, sizeof(sendBuf));
   891     0137  303D               	movlw	(low (_sendBuf| 0))& (0+255)
   892     0138  1283               	bcf	3,5	;RP0=0, select bank0
   893     0139  1303               	bcf	3,6	;RP1=0, select bank0
   894     013A  00D8               	movwf	memset@dest
   895     013B  3000               	movlw	0
   896     013C  00D9               	movwf	memset@c
   897     013D  00DA               	movwf	memset@c+1
   898     013E  300F               	movlw	15
   899     013F  00DB               	movwf	memset@n
   900     0140  3000               	movlw	0
   901     0141  00DC               	movwf	memset@n+1
   902     0142  118A  25FA  118A   	fcall	_memset
   903     0145                     l2335:
   904                           
   905                           ;main.c: 450:     memset(recvBuf, 0, sizeof(recvBuf));
   906     0145  302E               	movlw	(low (_recvBuf| 0))& (0+255)
   907     0146  1283               	bcf	3,5	;RP0=0, select bank0
   908     0147  1303               	bcf	3,6	;RP1=0, select bank0
   909     0148  00D8               	movwf	memset@dest
   910     0149  3000               	movlw	0
   911     014A  00D9               	movwf	memset@c
   912     014B  00DA               	movwf	memset@c+1
   913     014C  300F               	movlw	15
   914     014D  00DB               	movwf	memset@n
   915     014E  3000               	movlw	0
   916     014F  00DC               	movwf	memset@n+1
   917     0150  118A  25FA  118A   	fcall	_memset
   918     0153                     l2337:
   919                           
   920                           ;main.c: 451:     memset(txBuf, 0, sizeof(txBuf));
   921     0153  30AF               	movlw	(low (_txBuf| 0))& (0+255)
   922     0154  1283               	bcf	3,5	;RP0=0, select bank0
   923     0155  1303               	bcf	3,6	;RP1=0, select bank0
   924     0156  00D8               	movwf	memset@dest
   925     0157  3000               	movlw	0
   926     0158  00D9               	movwf	memset@c
   927     0159  00DA               	movwf	memset@c+1
   928     015A  300F               	movlw	15
   929     015B  00DB               	movwf	memset@n
   930     015C  3000               	movlw	0
   931     015D  00DC               	movwf	memset@n+1
   932     015E  118A  25FA  118A   	fcall	_memset
   933     0161                     l2339:
   934                           
   935                           ;main.c: 452:     cursorPos = 0;
   936     0161  1283               	bcf	3,5	;RP0=0, select bank0
   937     0162  1303               	bcf	3,6	;RP1=0, select bank0
   938     0163  01AD               	clrf	_cursorPos
   939     0164                     l2341:
   940                           
   941                           ;main.c: 453:     sendLen = 0;
   942     0164  01AC               	clrf	_sendLen
   943     0165                     l2343:
   944                           
   945                           ;main.c: 454:     uppercase = 1;
   946     0165  3001               	movlw	1
   947     0166  00AB               	movwf	_uppercase
   948     0167                     l2345:
   949                           
   950                           ;main.c: 455:     lastKey = 0xFF;
   951     0167  30FF               	movlw	255
   952     0168  00AA               	movwf	_lastKey
   953     0169                     l2347:
   954                           
   955                           ;main.c: 456:     tapIndex = 0;
   956     0169  01A9               	clrf	_tapIndex
   957     016A                     l2349:
   958                           
   959                           ;main.c: 457:     tapTimer = 0;
   960     016A  01A0               	clrf	_tapTimer
   961     016B  01A1               	clrf	_tapTimer+1
   962     016C                     l2351:
   963                           
   964                           ;main.c: 458:     txLen = 0;
   965     016C  01A8               	clrf	_txLen
   966     016D                     l2353:
   967                           
   968                           ;main.c: 459:     txIdx = 0;
   969     016D  01A7               	clrf	_txIdx
   970     016E                     l2355:
   971                           
   972                           ;main.c: 460:     newMsgFlag = 0;
   973     016E  01A3               	clrf	_newMsgFlag	;volatile
   974     016F                     l2357:
   975                           
   976                           ;main.c: 461:     refreshFlag = 0;
   977     016F  01A2               	clrf	_refreshFlag	;volatile
   978     0170                     l2359:
   979                           
   980                           ;main.c: 463:     lcd_refresh();
   981     0170  118A  227F  118A   	fcall	_lcd_refresh
   982     0173                     l2361:
   983                           
   984                           ;main.c: 465:     uint8_t prevKey = 0xFF;
   985     0173  30FF               	movlw	255
   986     0174  1683               	bsf	3,5	;RP0=1, select bank1
   987     0175  1303               	bcf	3,6	;RP1=0, select bank1
   988     0176  00D0               	movwf	main@prevKey^(0+128)
   989     0177                     l2363:
   990                           
   991                           ;main.c: 469:         if (newMsgFlag) {
   992     0177  1283               	bcf	3,5	;RP0=0, select bank0
   993     0178  1303               	bcf	3,6	;RP1=0, select bank0
   994     0179  0823               	movf	_newMsgFlag,w	;volatile
   995     017A  1903               	btfsc	3,2
   996     017B  297D               	goto	u1931
   997     017C  297E               	goto	u1930
   998     017D                     u1931:
   999     017D  2989               	goto	l2371
  1000     017E                     u1930:
  1001     017E                     l2365:
  1002                           
  1003                           ;main.c: 470:             newMsgFlag = 0;
  1004     017E  01A3               	clrf	_newMsgFlag	;volatile
  1005     017F                     l2367:
  1006                           
  1007                           ;main.c: 471:             buzzer_beep(120);
  1008     017F  3078               	movlw	120
  1009     0180  00D8               	movwf	buzzer_beep@duration_ms
  1010     0181  3000               	movlw	0
  1011     0182  00D9               	movwf	buzzer_beep@duration_ms+1
  1012     0183  118A  2586  118A   	fcall	_buzzer_beep
  1013     0186                     l2369:
  1014                           
  1015                           ;main.c: 472:             lcd_refresh();
  1016     0186  118A  227F  118A   	fcall	_lcd_refresh
  1017     0189                     l2371:
  1018                           
  1019                           ;main.c: 476:         uint8_t key = kb_scan();
  1020     0189  118A  2308  118A   	fcall	_kb_scan
  1021     018C  1683               	bsf	3,5	;RP0=1, select bank1
  1022     018D  1303               	bcf	3,6	;RP1=0, select bank1
  1023     018E  00D1               	movwf	main@key^(0+128)
  1024     018F                     l2373:
  1025                           
  1026                           ;main.c: 478:         if (key != 0xFF && key != prevKey) {
  1027     018F  0A51               	incf	main@key^(0+128),w
  1028     0190  1903               	btfsc	3,2
  1029     0191  2993               	goto	u1941
  1030     0192  2994               	goto	u1940
  1031     0193                     u1941:
  1032     0193  29C2               	goto	l2387
  1033     0194                     u1940:
  1034     0194                     l2375:
  1035     0194  0851               	movf	main@key^(0+128),w
  1036     0195  0650               	xorwf	main@prevKey^(0+128),w
  1037     0196  1903               	skipnz
  1038     0197  2999               	goto	u1951
  1039     0198  299A               	goto	u1950
  1040     0199                     u1951:
  1041     0199  29C2               	goto	l2387
  1042     019A                     u1950:
  1043     019A                     l2377:
  1044                           
  1045                           ;main.c: 479:             _delay((unsigned long)((50)*(4000000UL/4000.0)));
  1046     019A  3041               	movlw	65
  1047     019B  1683               	bsf	3,5	;RP0=1, select bank1
  1048     019C  1303               	bcf	3,6	;RP1=0, select bank1
  1049     019D  00CF               	movwf	(??_main^(0+128)+1)
  1050     019E  30EE               	movlw	238
  1051     019F  00CE               	movwf	??_main^(0+128)
  1052     01A0                     u2007:
  1053     01A0  0BCE               	decfsz	??_main^(0+128),f
  1054     01A1  29A0               	goto	u2007
  1055     01A2  0BCF               	decfsz	(??_main^(0+128)+1),f
  1056     01A3  29A0               	goto	u2007
  1057     01A4                     l2379:
  1058                           
  1059                           ;main.c: 480:             if (kb_scan() == key) {
  1060     01A4  118A  2308  118A   	fcall	_kb_scan
  1061     01A7  1683               	bsf	3,5	;RP0=1, select bank1
  1062     01A8  1303               	bcf	3,6	;RP1=0, select bank1
  1063     01A9  0651               	xorwf	main@key^(0+128),w
  1064     01AA  1D03               	skipz
  1065     01AB  29AD               	goto	u1961
  1066     01AC  29AE               	goto	u1960
  1067     01AD                     u1961:
  1068     01AD  29C9               	goto	l2391
  1069     01AE                     u1960:
  1070     01AE                     l2381:
  1071                           
  1072                           ;main.c: 481:                 buzzer_beep(80);
  1073     01AE  3050               	movlw	80
  1074     01AF  1283               	bcf	3,5	;RP0=0, select bank0
  1075     01B0  1303               	bcf	3,6	;RP1=0, select bank0
  1076     01B1  00D8               	movwf	buzzer_beep@duration_ms
  1077     01B2  3000               	movlw	0
  1078     01B3  00D9               	movwf	buzzer_beep@duration_ms+1
  1079     01B4  118A  2586  118A   	fcall	_buzzer_beep
  1080     01B7                     l2383:
  1081                           
  1082                           ;main.c: 482:                 process_key(key);
  1083     01B7  1683               	bsf	3,5	;RP0=1, select bank1
  1084     01B8  1303               	bcf	3,6	;RP1=0, select bank1
  1085     01B9  0851               	movf	main@key^(0+128),w
  1086     01BA  118A  202C  118A   	fcall	_process_key
  1087     01BD                     l2385:
  1088                           
  1089                           ;main.c: 483:                 prevKey = key;
  1090     01BD  1683               	bsf	3,5	;RP0=1, select bank1
  1091     01BE  1303               	bcf	3,6	;RP1=0, select bank1
  1092     01BF  0851               	movf	main@key^(0+128),w
  1093     01C0  00D0               	movwf	main@prevKey^(0+128)
  1094     01C1  29C9               	goto	l2391
  1095     01C2                     l2387:
  1096     01C2  0A51               	incf	main@key^(0+128),w
  1097     01C3  1D03               	btfss	3,2
  1098     01C4  29C6               	goto	u1971
  1099     01C5  29C7               	goto	u1970
  1100     01C6                     u1971:
  1101     01C6  29C9               	goto	l2391
  1102     01C7                     u1970:
  1103     01C7                     l2389:
  1104                           
  1105                           ;main.c: 486:             prevKey = 0xFF;
  1106     01C7  30FF               	movlw	255
  1107     01C8  00D0               	movwf	main@prevKey^(0+128)
  1108     01C9                     l2391:
  1109                           
  1110                           ;main.c: 490:         if (tapTimer > 0) {
  1111     01C9  1283               	bcf	3,5	;RP0=0, select bank0
  1112     01CA  1303               	bcf	3,6	;RP1=0, select bank0
  1113     01CB  0820               	movf	_tapTimer,w
  1114     01CC  0421               	iorwf	_tapTimer+1,w
  1115     01CD  1903               	btfsc	3,2
  1116     01CE  29D0               	goto	u1981
  1117     01CF  29D1               	goto	u1980
  1118     01D0                     u1981:
  1119     01D0  29E0               	goto	l2399
  1120     01D1                     u1980:
  1121     01D1                     l2393:
  1122                           
  1123                           ;main.c: 491:             tapTimer--;
  1124     01D1  3001               	movlw	1
  1125     01D2  02A0               	subwf	_tapTimer,f
  1126     01D3  3000               	movlw	0
  1127     01D4  1C03               	skipc
  1128     01D5  03A1               	decf	_tapTimer+1,f
  1129     01D6  02A1               	subwf	_tapTimer+1,f
  1130     01D7                     l2395:
  1131                           
  1132                           ;main.c: 492:             if (tapTimer == 0) multitap_commit();
  1133     01D7  0820               	movf	_tapTimer,w
  1134     01D8  0421               	iorwf	_tapTimer+1,w
  1135     01D9  1D03               	btfss	3,2
  1136     01DA  29DC               	goto	u1991
  1137     01DB  29DD               	goto	u1990
  1138     01DC                     u1991:
  1139     01DC  29E0               	goto	l2399
  1140     01DD                     u1990:
  1141     01DD                     l2397:
  1142     01DD  118A  268D  118A   	fcall	_multitap_commit
  1143     01E0                     l2399:
  1144                           
  1145                           ;main.c: 495:         _delay((unsigned long)((1)*(4000000UL/4000.0)));
  1146     01E0  30C7               	movlw	199
  1147     01E1  1683               	bsf	3,5	;RP0=1, select bank1
  1148     01E2  1303               	bcf	3,6	;RP1=0, select bank1
  1149     01E3  00CE               	movwf	??_main^(0+128)
  1150     01E4                     u2017:
  1151     01E4  29E5               	nop2
  1152     01E5  0BCE               	decfsz	??_main^(0+128),f
  1153     01E6  29E4               	goto	u2017
  1154     01E7  29E8               	nop2
  1155     01E8  0000               	nop
  1156     01E9  2977               	goto	l2363
  1157     01EA  118A  280F         	ljmp	start
  1158     01EC                     __end_of_main:
  1159                           
  1160                           	psect	text1
  1161     002C                     __ptext1:	
  1162 ;; *************** function _process_key *****************
  1163 ;; Defined at:
  1164 ;;		line 360 in file "main.c"
  1165 ;; Parameters:    Size  Location     Type
  1166 ;;  key             1    wreg     unsigned char 
  1167 ;; Auto vars:     Size  Location     Type
  1168 ;;  key             1   37[BANK0 ] unsigned char 
  1169 ;;  chars           1   36[BANK0 ] PTR const unsigned char 
  1170 ;;		 -> STR_10(3), STR_9(6), STR_8(5), STR_7(6), 
  1171 ;;		 -> STR_6(5), STR_5(5), STR_4(5), NULL(0), 
  1172 ;;		 -> STR_3(5), STR_2(5), STR_1(6), 
  1173 ;;  len             1   35[BANK0 ] unsigned char 
  1174 ;; Return value:  Size  Location     Type
  1175 ;;                  1    wreg      void 
  1176 ;; Registers used:
  1177 ;;		wreg, fsr0l, fsr0h, status,2, status,0, pclath, btemp1, cstack
  1178 ;; Tracked objects:
  1179 ;;		On entry : 0/0
  1180 ;;		On exit  : 0/0
  1181 ;;		Unchanged: 0/0
  1182 ;; Data sizes:     COMMON   BANK0   BANK1
  1183 ;;      Params:         0       0       0
  1184 ;;      Locals:         0       3       0
  1185 ;;      Temps:          0       2       0
  1186 ;;      Totals:         0       5       0
  1187 ;;Total ram usage:        5 bytes
  1188 ;; Hardware stack levels used: 1
  1189 ;; Hardware stack levels required when called: 4
  1190 ;; This function calls:
  1191 ;;		___awmod
  1192 ;;		_apply_case
  1193 ;;		_buzzer_beep
  1194 ;;		_lcd_refresh
  1195 ;;		_memcpy
  1196 ;;		_multitap_commit
  1197 ;;		_strlen
  1198 ;;		_text_clear_send
  1199 ;;		_text_delete
  1200 ;;		_text_insert_char
  1201 ;;		_text_replace_prev_char
  1202 ;; This function is called by:
  1203 ;;		_main
  1204 ;; This function uses a non-reentrant model
  1205 ;;
  1206                           
  1207     002C                     _process_key:	
  1208                           ;psect for function _process_key
  1209                           
  1210                           
  1211                           ;incstack = 0
  1212                           ; Regs used in _process_key: [wreg-fsr0h+status,2+status,0+pclath+btemp1+cstack]
  1213                           ;process_key@key stored from wreg
  1214     002C  1283               	bcf	3,5	;RP0=0, select bank0
  1215     002D  1303               	bcf	3,6	;RP1=0, select bank0
  1216     002E  00F1               	movwf	process_key@key
  1217     002F                     l2213:
  1218                           
  1219                           ;main.c: 362:     if (key == 3) {
  1220     002F  3003               	movlw	3
  1221     0030  0671               	xorwf	process_key@key,w
  1222     0031  1D03               	btfss	3,2
  1223     0032  2834               	goto	u1791
  1224     0033  2835               	goto	u1790
  1225     0034                     u1791:
  1226     0034  2845               	goto	l2225
  1227     0035                     u1790:
  1228     0035                     l2215:
  1229                           
  1230                           ;main.c: 363:         multitap_commit();
  1231     0035  118A  268D  118A   	fcall	_multitap_commit
  1232     0038                     l2217:
  1233                           
  1234                           ;main.c: 364:         if (cursorPos > 0) cursorPos--;
  1235     0038  1283               	bcf	3,5	;RP0=0, select bank0
  1236     0039  1303               	bcf	3,6	;RP1=0, select bank0
  1237     003A  082D               	movf	_cursorPos,w
  1238     003B  1903               	btfsc	3,2
  1239     003C  283E               	goto	u1801
  1240     003D  283F               	goto	u1800
  1241     003E                     u1801:
  1242     003E  2841               	goto	l2221
  1243     003F                     u1800:
  1244     003F                     l2219:
  1245     003F  3001               	movlw	1
  1246     0040  02AD               	subwf	_cursorPos,f
  1247     0041                     l2221:
  1248                           
  1249                           ;main.c: 365:         lcd_refresh();
  1250     0041  118A  227F  118A   	fcall	_lcd_refresh
  1251     0044  291F               	goto	l202
  1252     0045                     l2225:
  1253                           
  1254                           ;main.c: 368:     if (key == 7) {
  1255     0045  3007               	movlw	7
  1256     0046  0671               	xorwf	process_key@key,w
  1257     0047  1D03               	btfss	3,2
  1258     0048  284A               	goto	u1811
  1259     0049  284B               	goto	u1810
  1260     004A                     u1811:
  1261     004A  2859               	goto	l2237
  1262     004B                     u1810:
  1263     004B                     l2227:
  1264                           
  1265                           ;main.c: 369:         multitap_commit();
  1266     004B  118A  268D  118A   	fcall	_multitap_commit
  1267     004E                     l2229:
  1268                           
  1269                           ;main.c: 370:         if (cursorPos < sendLen) cursorPos++;
  1270     004E  1283               	bcf	3,5	;RP0=0, select bank0
  1271     004F  1303               	bcf	3,6	;RP1=0, select bank0
  1272     0050  082C               	movf	_sendLen,w
  1273     0051  022D               	subwf	_cursorPos,w
  1274     0052  1803               	skipnc
  1275     0053  2855               	goto	u1821
  1276     0054  2856               	goto	u1820
  1277     0055                     u1821:
  1278     0055  2841               	goto	l2221
  1279     0056                     u1820:
  1280     0056                     l2231:
  1281     0056  3001               	movlw	1
  1282     0057  07AD               	addwf	_cursorPos,f
  1283     0058  2841               	goto	l2221
  1284     0059                     l2237:
  1285                           
  1286                           ;main.c: 374:     if (key == 11) {
  1287     0059  300B               	movlw	11
  1288     005A  0671               	xorwf	process_key@key,w
  1289     005B  1D03               	btfss	3,2
  1290     005C  285E               	goto	u1831
  1291     005D  285F               	goto	u1830
  1292     005E                     u1831:
  1293     005E  2866               	goto	l2247
  1294     005F                     u1830:
  1295     005F                     l2239:
  1296                           
  1297                           ;main.c: 375:         multitap_commit();
  1298     005F  118A  268D  118A   	fcall	_multitap_commit
  1299     0062                     l2241:
  1300                           
  1301                           ;main.c: 376:         text_delete();
  1302     0062  118A  2463  118A   	fcall	_text_delete
  1303     0065  2841               	goto	l2221
  1304     0066                     l2247:
  1305                           
  1306                           ;main.c: 380:     if (key == 12) {
  1307     0066  300C               	movlw	12
  1308     0067  0671               	xorwf	process_key@key,w
  1309     0068  1D03               	btfss	3,2
  1310     0069  286B               	goto	u1841
  1311     006A  286C               	goto	u1840
  1312     006B                     u1841:
  1313     006B  287A               	goto	l2257
  1314     006C                     u1840:
  1315     006C                     l2249:
  1316                           
  1317                           ;main.c: 381:         multitap_commit();
  1318     006C  118A  268D  118A   	fcall	_multitap_commit
  1319     006F                     l2251:
  1320                           
  1321                           ;main.c: 382:         uppercase = !uppercase;
  1322     006F  1283               	bcf	3,5	;RP0=0, select bank0
  1323     0070  1303               	bcf	3,6	;RP1=0, select bank0
  1324     0071  082B               	movf	_uppercase,w
  1325     0072  1903               	btfsc	3,2
  1326     0073  2875               	goto	u1851
  1327     0074  2877               	goto	u1850
  1328     0075                     u1851:
  1329     0075  3001               	movlw	1
  1330     0076  2878               	goto	u1860
  1331     0077                     u1850:
  1332     0077  3000               	movlw	0
  1333     0078                     u1860:
  1334     0078  00AB               	movwf	_uppercase
  1335     0079  2841               	goto	l2221
  1336     007A                     l2257:
  1337                           
  1338                           ;main.c: 388:     if (key == 14) {
  1339     007A  300E               	movlw	14
  1340     007B  0671               	xorwf	process_key@key,w
  1341     007C  1D03               	btfss	3,2
  1342     007D  287F               	goto	u1871
  1343     007E  2880               	goto	u1870
  1344     007F                     u1871:
  1345     007F  28B2               	goto	l2281
  1346     0080                     u1870:
  1347     0080                     l2259:
  1348                           
  1349                           ;main.c: 389:         multitap_commit();
  1350     0080  118A  268D  118A   	fcall	_multitap_commit
  1351     0083                     l2261:
  1352                           
  1353                           ;main.c: 390:         if (sendLen > 0) {
  1354     0083  1283               	bcf	3,5	;RP0=0, select bank0
  1355     0084  1303               	bcf	3,6	;RP1=0, select bank0
  1356     0085  082C               	movf	_sendLen,w
  1357     0086  1903               	btfsc	3,2
  1358     0087  2889               	goto	u1881
  1359     0088  288A               	goto	u1880
  1360     0089                     u1881:
  1361     0089  2841               	goto	l2221
  1362     008A                     u1880:
  1363     008A                     l2263:
  1364                           
  1365                           ;main.c: 392:             PIE1bits.SSPIE = 0;
  1366     008A  1683               	bsf	3,5	;RP0=1, select bank1
  1367     008B  1303               	bcf	3,6	;RP1=0, select bank1
  1368     008C  118C               	bcf	12,3	;volatile
  1369     008D                     l2265:
  1370                           
  1371                           ;main.c: 393:             memcpy(txBuf, sendBuf, sendLen + 1);
  1372     008D  30AF               	movlw	(low (_txBuf| 0))& (0+255)
  1373     008E  1283               	bcf	3,5	;RP0=0, select bank0
  1374     008F  1303               	bcf	3,6	;RP1=0, select bank0
  1375     0090  00D8               	movwf	memcpy@d1
  1376     0091  303D               	movlw	(low (_sendBuf| 0))& (0+255)
  1377     0092  00D9               	movwf	memcpy@s1
  1378     0093  082C               	movf	_sendLen,w
  1379     0094  3E01               	addlw	1
  1380     0095  00DA               	movwf	memcpy@n
  1381     0096  3000               	movlw	0
  1382     0097  1803               	skipnc
  1383     0098  3001               	movlw	1
  1384     0099  00DB               	movwf	memcpy@n+1
  1385     009A  118A  24FC  118A   	fcall	_memcpy
  1386     009D                     l2267:
  1387                           
  1388                           ;main.c: 394:             txLen = sendLen;
  1389     009D  1283               	bcf	3,5	;RP0=0, select bank0
  1390     009E  1303               	bcf	3,6	;RP1=0, select bank0
  1391     009F  082C               	movf	_sendLen,w
  1392     00A0  00A8               	movwf	_txLen
  1393     00A1                     l2269:
  1394                           
  1395                           ;main.c: 395:             txIdx = 0;
  1396     00A1  01A7               	clrf	_txIdx
  1397     00A2                     l2271:
  1398                           
  1399                           ;main.c: 396:             PIE1bits.SSPIE = 1;
  1400     00A2  1683               	bsf	3,5	;RP0=1, select bank1
  1401     00A3  1303               	bcf	3,6	;RP1=0, select bank1
  1402     00A4  158C               	bsf	12,3	;volatile
  1403     00A5                     l2273:
  1404                           
  1405                           ;main.c: 398:             text_clear_send();
  1406     00A5  118A  2629  118A   	fcall	_text_clear_send
  1407     00A8                     l2275:
  1408                           
  1409                           ;main.c: 399:             buzzer_beep(150);
  1410     00A8  3096               	movlw	150
  1411     00A9  1283               	bcf	3,5	;RP0=0, select bank0
  1412     00AA  1303               	bcf	3,6	;RP1=0, select bank0
  1413     00AB  00D8               	movwf	buzzer_beep@duration_ms
  1414     00AC  3000               	movlw	0
  1415     00AD  00D9               	movwf	buzzer_beep@duration_ms+1
  1416     00AE  118A  2586  118A   	fcall	_buzzer_beep
  1417     00B1  2841               	goto	l2221
  1418     00B2                     l2281:
  1419                           
  1420                           ;main.c: 406:     if (key == 15) {
  1421     00B2  300F               	movlw	15
  1422     00B3  0671               	xorwf	process_key@key,w
  1423     00B4  1D03               	btfss	3,2
  1424     00B5  28B7               	goto	u1891
  1425     00B6  28B8               	goto	u1890
  1426     00B7                     u1891:
  1427     00B7  28BC               	goto	l2289
  1428     00B8                     u1890:
  1429     00B8                     l2283:
  1430                           
  1431                           ;main.c: 407:         multitap_commit();
  1432     00B8  118A  268D  118A   	fcall	_multitap_commit
  1433     00BB  2841               	goto	l2221
  1434     00BC                     l2289:
  1435                           
  1436                           ;main.c: 413:     const char *chars = keyChars[key];
  1437     00BC  0871               	movf	process_key@key,w
  1438     00BD  3EBE               	addlw	(low (_keyChars| 0))& (0+255)
  1439     00BE  0084               	movwf	4
  1440     00BF  1383               	bcf	3,7	;select IRP bank1
  1441     00C0  0800               	movf	0,w
  1442     00C1  00F0               	movwf	process_key@chars
  1443     00C2                     l2291:
  1444                           
  1445                           ;main.c: 414:     if (chars == ((void*)0)) return;
  1446     00C2  0870               	movf	process_key@chars,w
  1447     00C3  1D03               	btfss	3,2
  1448     00C4  28C6               	goto	u1901
  1449     00C5  28C7               	goto	u1900
  1450     00C6                     u1901:
  1451     00C6  28C8               	goto	l2295
  1452     00C7                     u1900:
  1453     00C7  291F               	goto	l202
  1454     00C8                     l2295:
  1455                           
  1456                           ;main.c: 415:     uint8_t len = (uint8_t)strlen(chars);
  1457     00C8  0870               	movf	process_key@chars,w
  1458     00C9  00D8               	movwf	strlen@s
  1459     00CA  3000               	movlw	0
  1460     00CB  1D03               	btfss	3,2
  1461     00CC  3080               	movlw	128
  1462     00CD  00D9               	movwf	strlen@s+1
  1463     00CE  118A  2542  118A   	fcall	_strlen
  1464     00D1  1283               	bcf	3,5	;RP0=0, select bank0
  1465     00D2  1303               	bcf	3,6	;RP1=0, select bank0
  1466     00D3  0858               	movf	?_strlen,w
  1467     00D4  00EF               	movwf	process_key@len
  1468     00D5                     l2297:
  1469                           
  1470                           ;main.c: 417:     if (key == lastKey && tapTimer > 0) {
  1471     00D5  0871               	movf	process_key@key,w
  1472     00D6  062A               	xorwf	_lastKey,w
  1473     00D7  1D03               	skipz
  1474     00D8  28DA               	goto	u1911
  1475     00D9  28DB               	goto	u1910
  1476     00DA                     u1911:
  1477     00DA  2909               	goto	l2307
  1478     00DB                     u1910:
  1479     00DB                     l2299:
  1480     00DB  0820               	movf	_tapTimer,w
  1481     00DC  0421               	iorwf	_tapTimer+1,w
  1482     00DD  1903               	btfsc	3,2
  1483     00DE  28E0               	goto	u1921
  1484     00DF  28E1               	goto	u1920
  1485     00E0                     u1921:
  1486     00E0  2909               	goto	l2307
  1487     00E1                     u1920:
  1488     00E1                     l2301:
  1489                           
  1490                           ;main.c: 418:         tapIndex = (tapIndex + 1) % len;
  1491     00E1  086F               	movf	process_key@len,w
  1492     00E2  00ED               	movwf	??_process_key
  1493     00E3  01EE               	clrf	??_process_key+1
  1494     00E4  086D               	movf	??_process_key,w
  1495     00E5  00D8               	movwf	___awmod@divisor
  1496     00E6  086E               	movf	??_process_key+1,w
  1497     00E7  00D9               	movwf	___awmod@divisor+1
  1498     00E8  0829               	movf	_tapIndex,w
  1499     00E9  3E01               	addlw	1
  1500     00EA  00DA               	movwf	___awmod@dividend
  1501     00EB  3000               	movlw	0
  1502     00EC  1803               	skipnc
  1503     00ED  3001               	movlw	1
  1504     00EE  00DB               	movwf	___awmod@dividend+1
  1505     00EF  118A  23C7  118A   	fcall	___awmod
  1506     00F2  1283               	bcf	3,5	;RP0=0, select bank0
  1507     00F3  1303               	bcf	3,6	;RP1=0, select bank0
  1508     00F4  0858               	movf	?___awmod,w
  1509     00F5  00A9               	movwf	_tapIndex
  1510     00F6                     l2303:
  1511                           
  1512                           ;main.c: 419:         text_replace_prev_char(apply_case(chars[tapIndex]));
  1513     00F6  0829               	movf	_tapIndex,w
  1514     00F7  0770               	addwf	process_key@chars,w
  1515     00F8  0084               	movwf	4
  1516     00F9  118A  242A  118A   	fcall	stringdir
  1517     00FC  118A  24D4  118A   	fcall	_apply_case
  1518     00FF  118A  265D  118A   	fcall	_text_replace_prev_char
  1519     0102                     l2305:
  1520                           
  1521                           ;main.c: 420:         tapTimer = 800;
  1522     0102  3020               	movlw	32
  1523     0103  1283               	bcf	3,5	;RP0=0, select bank0
  1524     0104  1303               	bcf	3,6	;RP1=0, select bank0
  1525     0105  00A0               	movwf	_tapTimer
  1526     0106  3003               	movlw	3
  1527     0107  00A1               	movwf	_tapTimer+1
  1528                           
  1529                           ;main.c: 421:     } else {
  1530     0108  2841               	goto	l2221
  1531     0109                     l2307:
  1532                           
  1533                           ;main.c: 422:         multitap_commit();
  1534     0109  118A  268D  118A   	fcall	_multitap_commit
  1535     010C                     l2309:
  1536                           
  1537                           ;main.c: 423:         tapIndex = 0;
  1538     010C  1283               	bcf	3,5	;RP0=0, select bank0
  1539     010D  1303               	bcf	3,6	;RP1=0, select bank0
  1540     010E  01A9               	clrf	_tapIndex
  1541     010F                     l2311:
  1542                           
  1543                           ;main.c: 424:         text_insert_char(apply_case(chars[0]));
  1544     010F  0870               	movf	process_key@chars,w
  1545     0110  0084               	movwf	4
  1546     0111  118A  242A  118A   	fcall	stringdir
  1547     0114  118A  24D4  118A   	fcall	_apply_case
  1548     0117  118A  24A1  118A   	fcall	_text_insert_char
  1549     011A                     l2313:
  1550                           
  1551                           ;main.c: 425:         lastKey = key;
  1552     011A  1283               	bcf	3,5	;RP0=0, select bank0
  1553     011B  1303               	bcf	3,6	;RP1=0, select bank0
  1554     011C  0871               	movf	process_key@key,w
  1555     011D  00AA               	movwf	_lastKey
  1556     011E  2902               	goto	l2305
  1557     011F                     l202:
  1558     011F  0008               	return
  1559     0120                     __end_of_process_key:
  1560                           
  1561                           	psect	text2
  1562     065D                     __ptext2:	
  1563 ;; *************** function _text_replace_prev_char *****************
  1564 ;; Defined at:
  1565 ;;		line 324 in file "main.c"
  1566 ;; Parameters:    Size  Location     Type
  1567 ;;  c               1    wreg     unsigned char 
  1568 ;; Auto vars:     Size  Location     Type
  1569 ;;  c               1   17[BANK0 ] unsigned char 
  1570 ;; Return value:  Size  Location     Type
  1571 ;;                  1    wreg      void 
  1572 ;; Registers used:
  1573 ;;		wreg, fsr0l, fsr0h, status,2, status,0
  1574 ;; Tracked objects:
  1575 ;;		On entry : 0/0
  1576 ;;		On exit  : 0/0
  1577 ;;		Unchanged: 0/0
  1578 ;; Data sizes:     COMMON   BANK0   BANK1
  1579 ;;      Params:         0       0       0
  1580 ;;      Locals:         0       1       0
  1581 ;;      Temps:          0       0       0
  1582 ;;      Totals:         0       1       0
  1583 ;;Total ram usage:        1 bytes
  1584 ;; Hardware stack levels used: 1
  1585 ;; Hardware stack levels required when called: 2
  1586 ;; This function calls:
  1587 ;;		Nothing
  1588 ;; This function is called by:
  1589 ;;		_process_key
  1590 ;; This function uses a non-reentrant model
  1591 ;;
  1592                           
  1593     065D                     _text_replace_prev_char:	
  1594                           ;psect for function _text_replace_prev_char
  1595                           
  1596                           
  1597                           ;incstack = 0
  1598                           ; Regs used in _text_replace_prev_char: [wreg-fsr0h+status,2+status,0]
  1599                           ;text_replace_prev_char@c stored from wreg
  1600     065D  1283               	bcf	3,5	;RP0=0, select bank0
  1601     065E  1303               	bcf	3,6	;RP1=0, select bank0
  1602     065F  00DD               	movwf	text_replace_prev_char@c
  1603     0660                     l2043:
  1604                           
  1605                           ;main.c: 325:     if (cursorPos == 0) return;
  1606     0660  082D               	movf	_cursorPos,w
  1607     0661  1D03               	btfss	3,2
  1608     0662  2E64               	goto	u1551
  1609     0663  2E65               	goto	u1550
  1610     0664                     u1551:
  1611     0664  2E66               	goto	l2047
  1612     0665                     u1550:
  1613     0665  2E6C               	goto	l174
  1614     0666                     l2047:
  1615                           
  1616                           ;main.c: 326:     sendBuf[cursorPos - 1] = c;
  1617     0666  082D               	movf	_cursorPos,w
  1618     0667  3E3C               	addlw	(low ((_sendBuf| 0+-1)))& (0+255)
  1619     0668  0084               	movwf	4
  1620     0669  085D               	movf	text_replace_prev_char@c,w
  1621     066A  1383               	bcf	3,7	;select IRP bank0
  1622     066B  0080               	movwf	0
  1623     066C                     l174:
  1624     066C  0008               	return
  1625     066D                     __end_of_text_replace_prev_char:
  1626                           
  1627                           	psect	text3
  1628     04A1                     __ptext3:	
  1629 ;; *************** function _text_insert_char *****************
  1630 ;; Defined at:
  1631 ;;		line 314 in file "main.c"
  1632 ;; Parameters:    Size  Location     Type
  1633 ;;  c               1    wreg     unsigned char 
  1634 ;; Auto vars:     Size  Location     Type
  1635 ;;  c               1   18[BANK0 ] unsigned char 
  1636 ;;  i               1   19[BANK0 ] char 
  1637 ;; Return value:  Size  Location     Type
  1638 ;;                  1    wreg      void 
  1639 ;; Registers used:
  1640 ;;		wreg, fsr0l, fsr0h, status,2, status,0, btemp1
  1641 ;; Tracked objects:
  1642 ;;		On entry : 0/0
  1643 ;;		On exit  : 0/0
  1644 ;;		Unchanged: 0/0
  1645 ;; Data sizes:     COMMON   BANK0   BANK1
  1646 ;;      Params:         0       0       0
  1647 ;;      Locals:         0       2       0
  1648 ;;      Temps:          0       1       0
  1649 ;;      Totals:         0       3       0
  1650 ;;Total ram usage:        3 bytes
  1651 ;; Hardware stack levels used: 1
  1652 ;; Hardware stack levels required when called: 2
  1653 ;; This function calls:
  1654 ;;		Nothing
  1655 ;; This function is called by:
  1656 ;;		_process_key
  1657 ;; This function uses a non-reentrant model
  1658 ;;
  1659                           
  1660     04A1                     _text_insert_char:	
  1661                           ;psect for function _text_insert_char
  1662                           
  1663                           
  1664                           ;incstack = 0
  1665                           ; Regs used in _text_insert_char: [wreg-fsr0h+status,2+status,0+btemp1]
  1666                           ;text_insert_char@c stored from wreg
  1667     04A1  1283               	bcf	3,5	;RP0=0, select bank0
  1668     04A2  1303               	bcf	3,6	;RP1=0, select bank0
  1669     04A3  00DE               	movwf	text_insert_char@c
  1670     04A4                     l2025:
  1671                           
  1672                           ;main.c: 315:     if (sendLen >= 14) return;
  1673     04A4  300E               	movlw	14
  1674     04A5  022C               	subwf	_sendLen,w
  1675     04A6  1C03               	skipc
  1676     04A7  2CA9               	goto	u1531
  1677     04A8  2CAA               	goto	u1530
  1678     04A9                     u1531:
  1679     04A9  2CAB               	goto	l2029
  1680     04AA                     u1530:
  1681     04AA  2CD3               	goto	l167
  1682     04AB                     l2029:
  1683                           
  1684                           ;main.c: 316:     for (int8_t i = (int8_t)sendLen; i > (int8_t)cursorPos; i--)
  1685     04AB  082C               	movf	_sendLen,w
  1686     04AC  00DF               	movwf	text_insert_char@i
  1687     04AD  2CBB               	goto	l2035
  1688     04AE                     l2031:
  1689                           
  1690                           ;main.c: 317:         sendBuf[i] = sendBuf[i - 1];
  1691     04AE  085F               	movf	text_insert_char@i,w
  1692     04AF  3E3C               	addlw	(low ((_sendBuf| 0+-1)))& (0+255)
  1693     04B0  0084               	movwf	4
  1694     04B1  1383               	bcf	3,7	;select IRP bank0
  1695     04B2  0800               	movf	0,w
  1696     04B3  00FF               	movwf	btemp1
  1697     04B4  085F               	movf	text_insert_char@i,w
  1698     04B5  3E3D               	addlw	(low (_sendBuf| 0))& (0+255)
  1699     04B6  0084               	movwf	4
  1700     04B7  087F               	movf	btemp1,w
  1701     04B8  0080               	movwf	0
  1702     04B9                     l2033:
  1703     04B9  30FF               	movlw	255
  1704     04BA  07DF               	addwf	text_insert_char@i,f
  1705     04BB                     l2035:
  1706     04BB  082D               	movf	_cursorPos,w
  1707     04BC  3A80               	xorlw	128
  1708     04BD  00DD               	movwf	??_text_insert_char
  1709     04BE  085F               	movf	text_insert_char@i,w
  1710     04BF  3A80               	xorlw	128
  1711     04C0  02DD               	subwf	??_text_insert_char,f
  1712     04C1  1C03               	skipc
  1713     04C2  2CC4               	goto	u1541
  1714     04C3  2CC5               	goto	u1540
  1715     04C4                     u1541:
  1716     04C4  2CAE               	goto	l2031
  1717     04C5                     u1540:
  1718     04C5                     l2037:
  1719                           
  1720                           ;main.c: 318:     sendBuf[cursorPos] = c;
  1721     04C5  082D               	movf	_cursorPos,w
  1722     04C6  3E3D               	addlw	(low (_sendBuf| 0))& (0+255)
  1723     04C7  0084               	movwf	4
  1724     04C8  085E               	movf	text_insert_char@c,w
  1725     04C9  1383               	bcf	3,7	;select IRP bank0
  1726     04CA  0080               	movwf	0
  1727     04CB                     l2039:
  1728                           
  1729                           ;main.c: 319:     sendLen++;
  1730     04CB  3001               	movlw	1
  1731     04CC  07AC               	addwf	_sendLen,f
  1732     04CD                     l2041:
  1733                           
  1734                           ;main.c: 320:     cursorPos++;
  1735     04CD  3001               	movlw	1
  1736     04CE  07AD               	addwf	_cursorPos,f
  1737                           
  1738                           ;main.c: 321:     sendBuf[sendLen] = '\0';
  1739     04CF  082C               	movf	_sendLen,w
  1740     04D0  3E3D               	addlw	(low (_sendBuf| 0))& (0+255)
  1741     04D1  0084               	movwf	4
  1742     04D2  0180               	clrf	0
  1743     04D3                     l167:
  1744     04D3  0008               	return
  1745     04D4                     __end_of_text_insert_char:
  1746                           
  1747                           	psect	text4
  1748     0463                     __ptext4:	
  1749 ;; *************** function _text_delete *****************
  1750 ;; Defined at:
  1751 ;;		line 329 in file "main.c"
  1752 ;; Parameters:    Size  Location     Type
  1753 ;;		None
  1754 ;; Auto vars:     Size  Location     Type
  1755 ;;  i               1   14[BANK0 ] unsigned char 
  1756 ;; Return value:  Size  Location     Type
  1757 ;;                  1    wreg      void 
  1758 ;; Registers used:
  1759 ;;		wreg, fsr0l, fsr0h, status,2, status,0, btemp1
  1760 ;; Tracked objects:
  1761 ;;		On entry : 0/0
  1762 ;;		On exit  : 0/0
  1763 ;;		Unchanged: 0/0
  1764 ;; Data sizes:     COMMON   BANK0   BANK1
  1765 ;;      Params:         0       0       0
  1766 ;;      Locals:         0       1       0
  1767 ;;      Temps:          0       2       0
  1768 ;;      Totals:         0       3       0
  1769 ;;Total ram usage:        3 bytes
  1770 ;; Hardware stack levels used: 1
  1771 ;; Hardware stack levels required when called: 2
  1772 ;; This function calls:
  1773 ;;		Nothing
  1774 ;; This function is called by:
  1775 ;;		_process_key
  1776 ;; This function uses a non-reentrant model
  1777 ;;
  1778                           
  1779     0463                     _text_delete:	
  1780                           ;psect for function _text_delete
  1781                           
  1782     0463                     l2049:	
  1783                           ;incstack = 0
  1784                           ; Regs used in _text_delete: [wreg-fsr0h+status,2+status,0+btemp1]
  1785                           
  1786                           
  1787                           ;main.c: 330:     if (cursorPos == 0 || sendLen == 0) return;
  1788     0463  1283               	bcf	3,5	;RP0=0, select bank0
  1789     0464  1303               	bcf	3,6	;RP1=0, select bank0
  1790     0465  082D               	movf	_cursorPos,w
  1791     0466  1903               	btfsc	3,2
  1792     0467  2C69               	goto	u1561
  1793     0468  2C6A               	goto	u1560
  1794     0469                     u1561:
  1795     0469  2CA0               	goto	l180
  1796     046A                     u1560:
  1797     046A                     l2051:
  1798     046A  082C               	movf	_sendLen,w
  1799     046B  1D03               	btfss	3,2
  1800     046C  2C6E               	goto	u1571
  1801     046D  2C6F               	goto	u1570
  1802     046E                     u1571:
  1803     046E  2C70               	goto	l2053
  1804     046F                     u1570:
  1805     046F  2CA0               	goto	l180
  1806     0470                     l2053:
  1807                           
  1808                           ;main.c: 331:     for (uint8_t i = cursorPos - 1; i < sendLen - 1; i++)
  1809     0470  082D               	movf	_cursorPos,w
  1810     0471  3EFF               	addlw	255
  1811     0472  00DA               	movwf	text_delete@i
  1812     0473  2C83               	goto	l2059
  1813     0474                     l2055:
  1814                           
  1815                           ;main.c: 332:         sendBuf[i] = sendBuf[i + 1];
  1816     0474  1283               	bcf	3,5	;RP0=0, select bank0
  1817     0475  1303               	bcf	3,6	;RP1=0, select bank0
  1818     0476  085A               	movf	text_delete@i,w
  1819     0477  3E3E               	addlw	(low ((_sendBuf| 0+1)))& (0+255)
  1820     0478  0084               	movwf	4
  1821     0479  1383               	bcf	3,7	;select IRP bank0
  1822     047A  0800               	movf	0,w
  1823     047B  00FF               	movwf	btemp1
  1824     047C  085A               	movf	text_delete@i,w
  1825     047D  3E3D               	addlw	(low (_sendBuf| 0))& (0+255)
  1826     047E  0084               	movwf	4
  1827     047F  087F               	movf	btemp1,w
  1828     0480  0080               	movwf	0
  1829     0481                     l2057:
  1830     0481  3001               	movlw	1
  1831     0482  07DA               	addwf	text_delete@i,f
  1832     0483                     l2059:
  1833     0483  082C               	movf	_sendLen,w
  1834     0484  3EFF               	addlw	255
  1835     0485  00D8               	movwf	??_text_delete
  1836     0486  30FF               	movlw	255
  1837     0487  1803               	skipnc
  1838     0488  3000               	movlw	0
  1839     0489  00D9               	movwf	??_text_delete+1
  1840     048A  0859               	movf	??_text_delete+1,w
  1841     048B  3A80               	xorlw	128
  1842     048C  3C80               	sublw	128
  1843     048D  1D03               	skipz
  1844     048E  2C91               	goto	u1585
  1845     048F  0858               	movf	??_text_delete,w
  1846     0490  025A               	subwf	text_delete@i,w
  1847     0491                     u1585:
  1848     0491  1C03               	skipc
  1849     0492  2C94               	goto	u1581
  1850     0493  2C95               	goto	u1580
  1851     0494                     u1581:
  1852     0494  2C74               	goto	l2055
  1853     0495                     u1580:
  1854     0495                     l2061:
  1855                           
  1856                           ;main.c: 333:     sendLen--;
  1857     0495  3001               	movlw	1
  1858     0496  1283               	bcf	3,5	;RP0=0, select bank0
  1859     0497  1303               	bcf	3,6	;RP1=0, select bank0
  1860     0498  02AC               	subwf	_sendLen,f
  1861                           
  1862                           ;main.c: 334:     cursorPos--;
  1863     0499  3001               	movlw	1
  1864     049A  02AD               	subwf	_cursorPos,f
  1865     049B                     l2063:
  1866                           
  1867                           ;main.c: 335:     sendBuf[sendLen] = '\0';
  1868     049B  082C               	movf	_sendLen,w
  1869     049C  3E3D               	addlw	(low (_sendBuf| 0))& (0+255)
  1870     049D  0084               	movwf	4
  1871     049E  1383               	bcf	3,7	;select IRP bank0
  1872     049F  0180               	clrf	0
  1873     04A0                     l180:
  1874     04A0  0008               	return
  1875     04A1                     __end_of_text_delete:
  1876                           
  1877                           	psect	text5
  1878     0629                     __ptext5:	
  1879 ;; *************** function _text_clear_send *****************
  1880 ;; Defined at:
  1881 ;;		line 338 in file "main.c"
  1882 ;; Parameters:    Size  Location     Type
  1883 ;;		None
  1884 ;; Auto vars:     Size  Location     Type
  1885 ;;		None
  1886 ;; Return value:  Size  Location     Type
  1887 ;;                  1    wreg      void 
  1888 ;; Registers used:
  1889 ;;		wreg, fsr0l, fsr0h, status,2, status,0, pclath, cstack
  1890 ;; Tracked objects:
  1891 ;;		On entry : 0/0
  1892 ;;		On exit  : 0/0
  1893 ;;		Unchanged: 0/0
  1894 ;; Data sizes:     COMMON   BANK0   BANK1
  1895 ;;      Params:         0       0       0
  1896 ;;      Locals:         0       0       0
  1897 ;;      Temps:          0       0       0
  1898 ;;      Totals:         0       0       0
  1899 ;;Total ram usage:        0 bytes
  1900 ;; Hardware stack levels used: 1
  1901 ;; Hardware stack levels required when called: 3
  1902 ;; This function calls:
  1903 ;;		_memset
  1904 ;; This function is called by:
  1905 ;;		_process_key
  1906 ;; This function uses a non-reentrant model
  1907 ;;
  1908                           
  1909     0629                     _text_clear_send:	
  1910                           ;psect for function _text_clear_send
  1911                           
  1912     0629                     l2065:	
  1913                           ;incstack = 0
  1914                           ; Regs used in _text_clear_send: [wreg-fsr0h+status,2+status,0+pclath+cstack]
  1915                           
  1916                           
  1917                           ;main.c: 339:     memset(sendBuf, 0, sizeof(sendBuf));
  1918     0629  303D               	movlw	(low (_sendBuf| 0))& (0+255)
  1919     062A  1283               	bcf	3,5	;RP0=0, select bank0
  1920     062B  1303               	bcf	3,6	;RP1=0, select bank0
  1921     062C  00D8               	movwf	memset@dest
  1922     062D  3000               	movlw	0
  1923     062E  00D9               	movwf	memset@c
  1924     062F  00DA               	movwf	memset@c+1
  1925     0630  300F               	movlw	15
  1926     0631  00DB               	movwf	memset@n
  1927     0632  3000               	movlw	0
  1928     0633  00DC               	movwf	memset@n+1
  1929     0634  118A  25FA  118A   	fcall	_memset
  1930     0637                     l2067:
  1931                           
  1932                           ;main.c: 340:     sendLen = 0;
  1933     0637  1283               	bcf	3,5	;RP0=0, select bank0
  1934     0638  1303               	bcf	3,6	;RP1=0, select bank0
  1935     0639  01AC               	clrf	_sendLen
  1936     063A                     l2069:
  1937                           
  1938                           ;main.c: 341:     cursorPos = 0;
  1939     063A  01AD               	clrf	_cursorPos
  1940     063B                     l186:
  1941     063B  0008               	return
  1942     063C                     __end_of_text_clear_send:
  1943                           
  1944                           	psect	text6
  1945     05FA                     __ptext6:	
  1946 ;; *************** function _memset *****************
  1947 ;; Defined at:
  1948 ;;		line 3 in file "C:\Program Files\Microchip\xc8\v3.10\pic\sources\c99\common\memset.c"
  1949 ;; Parameters:    Size  Location     Type
  1950 ;;  dest            1   12[BANK0 ] PTR void 
  1951 ;;		 -> txBuf(15), recvBuf(15), sendBuf(15), 
  1952 ;;  c               2   13[BANK0 ] int 
  1953 ;;  n               2   15[BANK0 ] unsigned int 
  1954 ;; Auto vars:     Size  Location     Type
  1955 ;;  p               1   17[BANK0 ] PTR unsigned char 
  1956 ;;		 -> txBuf(15), recvBuf(15), sendBuf(15), 
  1957 ;; Return value:  Size  Location     Type
  1958 ;;                  1   12[BANK0 ] PTR void 
  1959 ;; Registers used:
  1960 ;;		wreg, fsr0l, fsr0h, status,2, status,0
  1961 ;; Tracked objects:
  1962 ;;		On entry : 0/0
  1963 ;;		On exit  : 0/0
  1964 ;;		Unchanged: 0/0
  1965 ;; Data sizes:     COMMON   BANK0   BANK1
  1966 ;;      Params:         0       5       0
  1967 ;;      Locals:         0       1       0
  1968 ;;      Temps:          0       0       0
  1969 ;;      Totals:         0       6       0
  1970 ;;Total ram usage:        6 bytes
  1971 ;; Hardware stack levels used: 1
  1972 ;; Hardware stack levels required when called: 2
  1973 ;; This function calls:
  1974 ;;		Nothing
  1975 ;; This function is called by:
  1976 ;;		_text_clear_send
  1977 ;;		_main
  1978 ;; This function uses a non-reentrant model
  1979 ;;
  1980                           
  1981     05FA                     _memset:	
  1982                           ;psect for function _memset
  1983                           
  1984     05FA                     l1959:	
  1985                           ;incstack = 0
  1986                           ; Regs used in _memset: [wreg-fsr0h+status,2+status,0]
  1987                           
  1988     05FA  1283               	bcf	3,5	;RP0=0, select bank0
  1989     05FB  1303               	bcf	3,6	;RP1=0, select bank0
  1990     05FC  0858               	movf	memset@dest,w
  1991     05FD  00DD               	movwf	memset@p
  1992     05FE  2E06               	goto	l1965
  1993     05FF                     l1961:
  1994     05FF  085D               	movf	memset@p,w
  1995     0600  0084               	movwf	4
  1996     0601  0859               	movf	memset@c,w
  1997     0602  1383               	bcf	3,7	;select IRP bank0
  1998     0603  0080               	movwf	0
  1999     0604                     l1963:
  2000     0604  3001               	movlw	1
  2001     0605  07DD               	addwf	memset@p,f
  2002     0606                     l1965:
  2003     0606  3001               	movlw	1
  2004     0607  02DB               	subwf	memset@n,f
  2005     0608  3000               	movlw	0
  2006     0609  1C03               	skipc
  2007     060A  03DC               	decf	memset@n+1,f
  2008     060B  02DC               	subwf	memset@n+1,f
  2009     060C  0A5B               	incf	memset@n,w
  2010     060D  1D03               	skipz
  2011     060E  2E13               	goto	u1461
  2012     060F  0A5C               	incf	memset@n+1,w
  2013     0610  1D03               	btfss	3,2
  2014     0611  2E13               	goto	u1461
  2015     0612  2E14               	goto	u1460
  2016     0613                     u1461:
  2017     0613  2DFF               	goto	l1961
  2018     0614                     u1460:
  2019     0614                     l781:
  2020     0614  0008               	return
  2021     0615                     __end_of_memset:
  2022                           
  2023                           	psect	text7
  2024     068D                     __ptext7:	
  2025 ;; *************** function _multitap_commit *****************
  2026 ;; Defined at:
  2027 ;;		line 346 in file "main.c"
  2028 ;; Parameters:    Size  Location     Type
  2029 ;;		None
  2030 ;; Auto vars:     Size  Location     Type
  2031 ;;		None
  2032 ;; Return value:  Size  Location     Type
  2033 ;;                  1    wreg      void 
  2034 ;; Registers used:
  2035 ;;		status,2
  2036 ;; Tracked objects:
  2037 ;;		On entry : 0/0
  2038 ;;		On exit  : 0/0
  2039 ;;		Unchanged: 0/0
  2040 ;; Data sizes:     COMMON   BANK0   BANK1
  2041 ;;      Params:         0       0       0
  2042 ;;      Locals:         0       0       0
  2043 ;;      Temps:          0       0       0
  2044 ;;      Totals:         0       0       0
  2045 ;;Total ram usage:        0 bytes
  2046 ;; Hardware stack levels used: 1
  2047 ;; Hardware stack levels required when called: 2
  2048 ;; This function calls:
  2049 ;;		Nothing
  2050 ;; This function is called by:
  2051 ;;		_process_key
  2052 ;;		_main
  2053 ;; This function uses a non-reentrant model
  2054 ;;
  2055                           
  2056     068D                     _multitap_commit:	
  2057                           ;psect for function _multitap_commit
  2058                           
  2059     068D                     l2071:	
  2060                           ;incstack = 0
  2061                           ; Regs used in _multitap_commit: [status,2]
  2062                           
  2063                           
  2064                           ;main.c: 347:     lastKey = 0xFF;
  2065     068D  30FF               	movlw	255
  2066     068E  1283               	bcf	3,5	;RP0=0, select bank0
  2067     068F  1303               	bcf	3,6	;RP1=0, select bank0
  2068     0690  00AA               	movwf	_lastKey
  2069     0691                     l2073:
  2070                           
  2071                           ;main.c: 348:     tapIndex = 0;
  2072     0691  01A9               	clrf	_tapIndex
  2073                           
  2074                           ;main.c: 349:     tapTimer = 0;
  2075     0692  01A0               	clrf	_tapTimer
  2076     0693  01A1               	clrf	_tapTimer+1
  2077     0694                     l189:
  2078     0694  0008               	return
  2079     0695                     __end_of_multitap_commit:
  2080                           
  2081                           	psect	text8
  2082     04FC                     __ptext8:	
  2083 ;; *************** function _memcpy *****************
  2084 ;; Defined at:
  2085 ;;		line 4 in file "C:\Program Files\Microchip\xc8\v3.10\pic\sources\c99\common\memcpy.c"
  2086 ;; Parameters:    Size  Location     Type
  2087 ;;  d1              1   12[BANK0 ] PTR void 
  2088 ;;		 -> txBuf(15), recvBuf(15), 
  2089 ;;  s1              1   13[BANK0 ] PTR const void 
  2090 ;;		 -> rxTmp(15), sendBuf(15), 
  2091 ;;  n               2   14[BANK0 ] unsigned int 
  2092 ;; Auto vars:     Size  Location     Type
  2093 ;;  s               1   18[BANK0 ] PTR const unsigned char 
  2094 ;;		 -> rxTmp(15), sendBuf(15), 
  2095 ;;  d               1   17[BANK0 ] PTR unsigned char 
  2096 ;;		 -> txBuf(15), recvBuf(15), 
  2097 ;;  tmp             1   16[BANK0 ] unsigned char 
  2098 ;; Return value:  Size  Location     Type
  2099 ;;                  1   12[BANK0 ] PTR void 
  2100 ;; Registers used:
  2101 ;;		wreg, fsr0l, fsr0h, status,2, status,0
  2102 ;; Tracked objects:
  2103 ;;		On entry : 0/0
  2104 ;;		On exit  : 0/0
  2105 ;;		Unchanged: 0/0
  2106 ;; Data sizes:     COMMON   BANK0   BANK1
  2107 ;;      Params:         0       4       0
  2108 ;;      Locals:         0       3       0
  2109 ;;      Temps:          0       0       0
  2110 ;;      Totals:         0       7       0
  2111 ;;Total ram usage:        7 bytes
  2112 ;; Hardware stack levels used: 1
  2113 ;; Hardware stack levels required when called: 2
  2114 ;; This function calls:
  2115 ;;		Nothing
  2116 ;; This function is called by:
  2117 ;;		_process_key
  2118 ;; This function uses a non-reentrant model
  2119 ;;
  2120                           
  2121     04FC                     _memcpy:	
  2122                           ;psect for function _memcpy
  2123                           
  2124     04FC                     l2017:	
  2125                           ;incstack = 0
  2126                           ; Regs used in _memcpy: [wreg-fsr0h+status,2+status,0]
  2127                           
  2128     04FC  1283               	bcf	3,5	;RP0=0, select bank0
  2129     04FD  1303               	bcf	3,6	;RP1=0, select bank0
  2130     04FE  0859               	movf	memcpy@s1,w
  2131     04FF  00DE               	movwf	memcpy@s
  2132     0500  0858               	movf	memcpy@d1,w
  2133     0501  00DD               	movwf	memcpy@d
  2134     0502  2D10               	goto	l772
  2135     0503                     l2019:
  2136     0503  085E               	movf	memcpy@s,w
  2137     0504  0084               	movwf	4
  2138     0505  1383               	bcf	3,7	;select IRP bank0
  2139     0506  0800               	movf	0,w
  2140     0507  00DC               	movwf	memcpy@tmp
  2141     0508                     l2021:
  2142     0508  3001               	movlw	1
  2143     0509  07DE               	addwf	memcpy@s,f
  2144     050A                     l2023:
  2145     050A  085D               	movf	memcpy@d,w
  2146     050B  0084               	movwf	4
  2147     050C  085C               	movf	memcpy@tmp,w
  2148     050D  0080               	movwf	0
  2149     050E  3001               	movlw	1
  2150     050F  07DD               	addwf	memcpy@d,f
  2151     0510                     l772:
  2152     0510  3001               	movlw	1
  2153     0511  02DA               	subwf	memcpy@n,f
  2154     0512  3000               	movlw	0
  2155     0513  1C03               	skipc
  2156     0514  03DB               	decf	memcpy@n+1,f
  2157     0515  02DB               	subwf	memcpy@n+1,f
  2158     0516  0A5A               	incf	memcpy@n,w
  2159     0517  1D03               	skipz
  2160     0518  2D1D               	goto	u1521
  2161     0519  0A5B               	incf	memcpy@n+1,w
  2162     051A  1D03               	btfss	3,2
  2163     051B  2D1D               	goto	u1521
  2164     051C  2D1E               	goto	u1520
  2165     051D                     u1521:
  2166     051D  2D03               	goto	l2019
  2167     051E                     u1520:
  2168     051E                     l775:
  2169     051E  0008               	return
  2170     051F                     __end_of_memcpy:
  2171                           
  2172                           	psect	text9
  2173     027F                     __ptext9:	
  2174 ;; *************** function _lcd_refresh *****************
  2175 ;; Defined at:
  2176 ;;		line 162 in file "main.c"
  2177 ;; Parameters:    Size  Location     Type
  2178 ;;		None
  2179 ;; Auto vars:     Size  Location     Type
  2180 ;;  i               1   32[BANK0 ] unsigned char 
  2181 ;;  rLen            1   27[BANK0 ] unsigned char 
  2182 ;; Return value:  Size  Location     Type
  2183 ;;                  1    wreg      void 
  2184 ;; Registers used:
  2185 ;;		wreg, fsr0l, fsr0h, status,2, status,0, pclath, btemp1, cstack
  2186 ;; Tracked objects:
  2187 ;;		On entry : 0/0
  2188 ;;		On exit  : 0/0
  2189 ;;		Unchanged: 0/0
  2190 ;; Data sizes:     COMMON   BANK0   BANK1
  2191 ;;      Params:         0       0       0
  2192 ;;      Locals:         0       6       0
  2193 ;;      Temps:          0       2       0
  2194 ;;      Totals:         0       8       0
  2195 ;;Total ram usage:        8 bytes
  2196 ;; Hardware stack levels used: 1
  2197 ;; Hardware stack levels required when called: 2
  2198 ;; This function calls:
  2199 ;;		_lcd_char
  2200 ;;		_lcd_cmd
  2201 ;;		_lcd_set_cursor
  2202 ;;		_strlen
  2203 ;; This function is called by:
  2204 ;;		_process_key
  2205 ;;		_main
  2206 ;; This function uses a non-reentrant model
  2207 ;;
  2208                           
  2209     027F                     _lcd_refresh:	
  2210                           ;psect for function _lcd_refresh
  2211                           
  2212     027F                     l1967:	
  2213                           ;incstack = 0
  2214                           ; Regs used in _lcd_refresh: [wreg-fsr0h+status,2+status,0+pclath+btemp1+cstack]
  2215                           
  2216                           
  2217                           ;main.c: 163:     uint8_t i;;main.c: 166:     lcd_set_cursor(0, 0);
  2218     027F  1283               	bcf	3,5	;RP0=0, select bank0
  2219     0280  1303               	bcf	3,6	;RP1=0, select bank0
  2220     0281  01E1               	clrf	lcd_set_cursor@row
  2221     0282  3000               	movlw	0
  2222     0283  118A  25C2  118A   	fcall	_lcd_set_cursor
  2223                           
  2224                           ;main.c: 167:     lcd_char('S'); lcd_char(':'); lcd_char(' ');
  2225     0286  3053               	movlw	83
  2226     0287  118A  267B  118A   	fcall	_lcd_char
  2227     028A  303A               	movlw	58
  2228     028B  118A  267B  118A   	fcall	_lcd_char
  2229     028E  3020               	movlw	32
  2230     028F  118A  267B  118A   	fcall	_lcd_char
  2231     0292                     l1969:
  2232                           
  2233                           ;main.c: 168:     for (i = 0; i < 14; i++)
  2234     0292  1283               	bcf	3,5	;RP0=0, select bank0
  2235     0293  1303               	bcf	3,6	;RP1=0, select bank0
  2236     0294  01EC               	clrf	lcd_refresh@i
  2237     0295                     l1975:
  2238                           
  2239                           ;main.c: 169:         lcd_char((i < sendLen) ? sendBuf[i] : ' ');
  2240     0295  082C               	movf	_sendLen,w
  2241     0296  026C               	subwf	lcd_refresh@i,w
  2242     0297  1C03               	skipc
  2243     0298  2A9A               	goto	u1471
  2244     0299  2A9B               	goto	u1470
  2245     029A                     u1471:
  2246     029A  2AA0               	goto	l1979
  2247     029B                     u1470:
  2248     029B                     l1977:
  2249     029B  3020               	movlw	32
  2250     029C  00E8               	movwf	_lcd_refresh$361
  2251     029D  3000               	movlw	0
  2252     029E  00E9               	movwf	_lcd_refresh$361+1
  2253     029F  2AAB               	goto	l1981
  2254     02A0                     l1979:
  2255     02A0  086C               	movf	lcd_refresh@i,w
  2256     02A1  3E3D               	addlw	(low (_sendBuf| 0))& (0+255)
  2257     02A2  0084               	movwf	4
  2258     02A3  1383               	bcf	3,7	;select IRP bank0
  2259     02A4  0800               	movf	0,w
  2260     02A5  00E5               	movwf	??_lcd_refresh
  2261     02A6  01E6               	clrf	??_lcd_refresh+1
  2262     02A7  0865               	movf	??_lcd_refresh,w
  2263     02A8  00E8               	movwf	_lcd_refresh$361
  2264     02A9  0866               	movf	??_lcd_refresh+1,w
  2265     02AA  00E9               	movwf	_lcd_refresh$361+1
  2266     02AB                     l1981:
  2267     02AB  0868               	movf	_lcd_refresh$361,w
  2268     02AC  118A  267B  118A   	fcall	_lcd_char
  2269     02AF                     l1983:
  2270     02AF  3001               	movlw	1
  2271     02B0  1283               	bcf	3,5	;RP0=0, select bank0
  2272     02B1  1303               	bcf	3,6	;RP1=0, select bank0
  2273     02B2  07EC               	addwf	lcd_refresh@i,f
  2274     02B3                     l1985:
  2275     02B3  300E               	movlw	14
  2276     02B4  026C               	subwf	lcd_refresh@i,w
  2277     02B5  1C03               	skipc
  2278     02B6  2AB8               	goto	u1481
  2279     02B7  2AB9               	goto	u1480
  2280     02B8                     u1481:
  2281     02B8  2A95               	goto	l1975
  2282     02B9                     u1480:
  2283     02B9                     l1987:
  2284                           
  2285                           ;main.c: 172:     lcd_set_cursor(0, 1);
  2286     02B9  01E1               	clrf	lcd_set_cursor@row
  2287     02BA  0AE1               	incf	lcd_set_cursor@row,f
  2288     02BB  3000               	movlw	0
  2289     02BC  118A  25C2  118A   	fcall	_lcd_set_cursor
  2290                           
  2291                           ;main.c: 173:     lcd_char('R'); lcd_char(':'); lcd_char(' ');
  2292     02BF  3052               	movlw	82
  2293     02C0  118A  267B  118A   	fcall	_lcd_char
  2294     02C3  303A               	movlw	58
  2295     02C4  118A  267B  118A   	fcall	_lcd_char
  2296     02C7  3020               	movlw	32
  2297     02C8  118A  267B  118A   	fcall	_lcd_char
  2298     02CB                     l1989:
  2299                           
  2300                           ;main.c: 174:     uint8_t rLen = (uint8_t)strlen(recvBuf);
  2301     02CB  302E               	movlw	(low (_recvBuf| 0))& (0+255)
  2302     02CC  1283               	bcf	3,5	;RP0=0, select bank0
  2303     02CD  1303               	bcf	3,6	;RP1=0, select bank0
  2304     02CE  00D8               	movwf	strlen@s
  2305     02CF  3000               	movlw	0
  2306     02D0  00D9               	movwf	strlen@s+1
  2307     02D1  118A  2542  118A   	fcall	_strlen
  2308     02D4  1283               	bcf	3,5	;RP0=0, select bank0
  2309     02D5  1303               	bcf	3,6	;RP1=0, select bank0
  2310     02D6  0858               	movf	?_strlen,w
  2311     02D7  00E7               	movwf	lcd_refresh@rLen
  2312     02D8                     l1991:
  2313                           
  2314                           ;main.c: 175:     for (i = 0; i < 14; i++)
  2315     02D8  01EC               	clrf	lcd_refresh@i
  2316     02D9                     l1997:
  2317                           
  2318                           ;main.c: 176:         lcd_char((i < rLen) ? recvBuf[i] : ' ');
  2319     02D9  0867               	movf	lcd_refresh@rLen,w
  2320     02DA  026C               	subwf	lcd_refresh@i,w
  2321     02DB  1C03               	skipc
  2322     02DC  2ADE               	goto	u1491
  2323     02DD  2ADF               	goto	u1490
  2324     02DE                     u1491:
  2325     02DE  2AE4               	goto	l2001
  2326     02DF                     u1490:
  2327     02DF                     l1999:
  2328     02DF  3020               	movlw	32
  2329     02E0  00EA               	movwf	_lcd_refresh$363
  2330     02E1  3000               	movlw	0
  2331     02E2  00EB               	movwf	_lcd_refresh$363+1
  2332     02E3  2AEF               	goto	l2003
  2333     02E4                     l2001:
  2334     02E4  086C               	movf	lcd_refresh@i,w
  2335     02E5  3E2E               	addlw	(low (_recvBuf| 0))& (0+255)
  2336     02E6  0084               	movwf	4
  2337     02E7  1383               	bcf	3,7	;select IRP bank0
  2338     02E8  0800               	movf	0,w
  2339     02E9  00E5               	movwf	??_lcd_refresh
  2340     02EA  01E6               	clrf	??_lcd_refresh+1
  2341     02EB  0865               	movf	??_lcd_refresh,w
  2342     02EC  00EA               	movwf	_lcd_refresh$363
  2343     02ED  0866               	movf	??_lcd_refresh+1,w
  2344     02EE  00EB               	movwf	_lcd_refresh$363+1
  2345     02EF                     l2003:
  2346     02EF  086A               	movf	_lcd_refresh$363,w
  2347     02F0  118A  267B  118A   	fcall	_lcd_char
  2348     02F3                     l2005:
  2349     02F3  3001               	movlw	1
  2350     02F4  1283               	bcf	3,5	;RP0=0, select bank0
  2351     02F5  1303               	bcf	3,6	;RP1=0, select bank0
  2352     02F6  07EC               	addwf	lcd_refresh@i,f
  2353     02F7                     l2007:
  2354     02F7  300E               	movlw	14
  2355     02F8  026C               	subwf	lcd_refresh@i,w
  2356     02F9  1C03               	skipc
  2357     02FA  2AFC               	goto	u1501
  2358     02FB  2AFD               	goto	u1500
  2359     02FC                     u1501:
  2360     02FC  2AD9               	goto	l1997
  2361     02FD                     u1500:
  2362     02FD                     l2009:
  2363                           
  2364                           ;main.c: 179:     lcd_set_cursor(3 + cursorPos, 0);
  2365     02FD  01E1               	clrf	lcd_set_cursor@row
  2366     02FE  082D               	movf	_cursorPos,w
  2367     02FF  3E03               	addlw	3
  2368     0300  118A  25C2  118A   	fcall	_lcd_set_cursor
  2369                           
  2370                           ;main.c: 180:     lcd_cmd(0x0F);
  2371     0303  300F               	movlw	15
  2372     0304  118A  25A5  118A   	fcall	_lcd_cmd
  2373     0307                     l125:
  2374     0307  0008               	return
  2375     0308                     __end_of_lcd_refresh:
  2376                           
  2377                           	psect	text10
  2378     0542                     __ptext10:	
  2379 ;; *************** function _strlen *****************
  2380 ;; Defined at:
  2381 ;;		line 5 in file "C:\Program Files\Microchip\xc8\v3.10\pic\sources\c99\common\strlen.c"
  2382 ;; Parameters:    Size  Location     Type
  2383 ;;  s               2   12[BANK0 ] PTR const unsigned char 
  2384 ;;		 -> recvBuf(15), STR_10(3), STR_9(6), STR_8(5), 
  2385 ;;		 -> STR_7(6), STR_6(5), STR_5(5), STR_4(5), 
  2386 ;;		 -> NULL(0), STR_3(5), STR_2(5), STR_1(6), 
  2387 ;; Auto vars:     Size  Location     Type
  2388 ;;  a               2   14[BANK0 ] PTR const unsigned char 
  2389 ;;		 -> recvBuf(15), STR_10(3), STR_9(6), STR_8(5), 
  2390 ;;		 -> STR_7(6), STR_6(5), STR_5(5), STR_4(5), 
  2391 ;;		 -> NULL(0), STR_3(5), STR_2(5), STR_1(6), 
  2392 ;; Return value:  Size  Location     Type
  2393 ;;                  2   12[BANK0 ] unsigned int 
  2394 ;; Registers used:
  2395 ;;		wreg, fsr0l, fsr0h, status,2, status,0, pclath, btemp1
  2396 ;; Tracked objects:
  2397 ;;		On entry : 0/0
  2398 ;;		On exit  : 0/0
  2399 ;;		Unchanged: 0/0
  2400 ;; Data sizes:     COMMON   BANK0   BANK1
  2401 ;;      Params:         0       2       0
  2402 ;;      Locals:         0       2       0
  2403 ;;      Temps:          0       0       0
  2404 ;;      Totals:         0       4       0
  2405 ;;Total ram usage:        4 bytes
  2406 ;; Hardware stack levels used: 1
  2407 ;; Hardware stack levels required when called: 2
  2408 ;; This function calls:
  2409 ;;		Nothing
  2410 ;; This function is called by:
  2411 ;;		_lcd_refresh
  2412 ;;		_process_key
  2413 ;; This function uses a non-reentrant model
  2414 ;;
  2415                           
  2416     0542                     _strlen:	
  2417                           ;psect for function _strlen
  2418                           
  2419     0542                     l1949:	
  2420                           ;incstack = 0
  2421                           ; Regs used in _strlen: [wreg-fsr0h+status,2+status,0+pclath+btemp1]
  2422                           
  2423     0542  1283               	bcf	3,5	;RP0=0, select bank0
  2424     0543  1303               	bcf	3,6	;RP1=0, select bank0
  2425     0544  0858               	movf	strlen@s,w
  2426     0545  00DA               	movwf	strlen@a
  2427     0546  0859               	movf	strlen@s+1,w
  2428     0547  00DB               	movwf	strlen@a+1
  2429     0548  2D4F               	goto	l1953
  2430     0549                     l1951:
  2431     0549  3001               	movlw	1
  2432     054A  07D8               	addwf	strlen@s,f
  2433     054B  1803               	skipnc
  2434     054C  0AD9               	incf	strlen@s+1,f
  2435     054D  3000               	movlw	0
  2436     054E  07D9               	addwf	strlen@s+1,f
  2437     054F                     l1953:
  2438     054F  0859               	movf	strlen@s+1,w
  2439     0550  00FF               	movwf	btemp1
  2440     0551  0858               	movf	strlen@s,w
  2441     0552  0084               	movwf	4
  2442     0553  118A  2420  118A   	fcall	stringtab
  2443     0556  3A00               	xorlw	0
  2444     0557  1D03               	skipz
  2445     0558  2D5A               	goto	u1451
  2446     0559  2D5B               	goto	u1450
  2447     055A                     u1451:
  2448     055A  2D49               	goto	l1951
  2449     055B                     u1450:
  2450     055B                     l1955:
  2451     055B  085A               	movf	strlen@a,w
  2452     055C  0258               	subwf	strlen@s,w
  2453     055D  00D8               	movwf	?_strlen
  2454     055E  085B               	movf	strlen@a+1,w
  2455     055F  1C03               	skipc
  2456     0560  0A5B               	incf	strlen@a+1,w
  2457     0561  0259               	subwf	strlen@s+1,w
  2458     0562  00D9               	movwf	?_strlen+1
  2459     0563                     l787:
  2460     0563  0008               	return
  2461     0564                     __end_of_strlen:
  2462                           
  2463                           	psect	text11
  2464     05C2                     __ptext11:	
  2465 ;; *************** function _lcd_set_cursor *****************
  2466 ;; Defined at:
  2467 ;;		line 158 in file "main.c"
  2468 ;; Parameters:    Size  Location     Type
  2469 ;;  col             1    wreg     unsigned char 
  2470 ;;  row             1   21[BANK0 ] unsigned char 
  2471 ;; Auto vars:     Size  Location     Type
  2472 ;;  col             1   24[BANK0 ] unsigned char 
  2473 ;; Return value:  Size  Location     Type
  2474 ;;                  1    wreg      void 
  2475 ;; Registers used:
  2476 ;;		wreg, status,2, status,0, pclath, cstack
  2477 ;; Tracked objects:
  2478 ;;		On entry : 0/0
  2479 ;;		On exit  : 0/0
  2480 ;;		Unchanged: 0/0
  2481 ;; Data sizes:     COMMON   BANK0   BANK1
  2482 ;;      Params:         0       1       0
  2483 ;;      Locals:         0       3       0
  2484 ;;      Temps:          0       0       0
  2485 ;;      Totals:         0       4       0
  2486 ;;Total ram usage:        4 bytes
  2487 ;; Hardware stack levels used: 1
  2488 ;; Hardware stack levels required when called: 3
  2489 ;; This function calls:
  2490 ;;		_lcd_cmd
  2491 ;; This function is called by:
  2492 ;;		_lcd_refresh
  2493 ;; This function uses a non-reentrant model
  2494 ;;
  2495                           
  2496     05C2                     _lcd_set_cursor:	
  2497                           ;psect for function _lcd_set_cursor
  2498                           
  2499                           
  2500                           ;incstack = 0
  2501                           ; Regs used in _lcd_set_cursor: [wreg+status,2+status,0+pclath+cstack]
  2502                           ;lcd_set_cursor@col stored from wreg
  2503     05C2  1283               	bcf	3,5	;RP0=0, select bank0
  2504     05C3  1303               	bcf	3,6	;RP1=0, select bank0
  2505     05C4  00E4               	movwf	lcd_set_cursor@col
  2506     05C5                     l1941:
  2507                           
  2508                           ;main.c: 159:     lcd_cmd((row == 0) ? (0x80 + col) : (0xC0 + col));
  2509     05C5  0861               	movf	lcd_set_cursor@row,w
  2510     05C6  1903               	btfsc	3,2
  2511     05C7  2DC9               	goto	u1441
  2512     05C8  2DCA               	goto	u1440
  2513     05C9                     u1441:
  2514     05C9  2DD2               	goto	l1945
  2515     05CA                     u1440:
  2516     05CA                     l1943:
  2517     05CA  0864               	movf	lcd_set_cursor@col,w
  2518     05CB  3EC0               	addlw	192
  2519     05CC  00E2               	movwf	_lcd_set_cursor$356
  2520     05CD  3000               	movlw	0
  2521     05CE  1803               	skipnc
  2522     05CF  3001               	movlw	1
  2523     05D0  00E3               	movwf	_lcd_set_cursor$356+1
  2524     05D1  2DD9               	goto	l1947
  2525     05D2                     l1945:
  2526     05D2  0864               	movf	lcd_set_cursor@col,w
  2527     05D3  3E80               	addlw	128
  2528     05D4  00E2               	movwf	_lcd_set_cursor$356
  2529     05D5  3000               	movlw	0
  2530     05D6  1803               	skipnc
  2531     05D7  3001               	movlw	1
  2532     05D8  00E3               	movwf	_lcd_set_cursor$356+1
  2533     05D9                     l1947:
  2534     05D9  0862               	movf	_lcd_set_cursor$356,w
  2535     05DA  118A  25A5  118A   	fcall	_lcd_cmd
  2536     05DD                     l110:
  2537     05DD  0008               	return
  2538     05DE                     __end_of_lcd_set_cursor:
  2539                           
  2540                           	psect	text12
  2541     067B                     __ptext12:	
  2542 ;; *************** function _lcd_char *****************
  2543 ;; Defined at:
  2544 ;;		line 136 in file "main.c"
  2545 ;; Parameters:    Size  Location     Type
  2546 ;;  c               1    wreg     unsigned char 
  2547 ;; Auto vars:     Size  Location     Type
  2548 ;;  c               1   18[BANK0 ] unsigned char 
  2549 ;; Return value:  Size  Location     Type
  2550 ;;                  1    wreg      void 
  2551 ;; Registers used:
  2552 ;;		wreg, status,2, status,0, pclath, cstack
  2553 ;; Tracked objects:
  2554 ;;		On entry : 0/0
  2555 ;;		On exit  : 0/0
  2556 ;;		Unchanged: 0/0
  2557 ;; Data sizes:     COMMON   BANK0   BANK1
  2558 ;;      Params:         0       0       0
  2559 ;;      Locals:         0       1       0
  2560 ;;      Temps:          0       0       0
  2561 ;;      Totals:         0       1       0
  2562 ;;Total ram usage:        1 bytes
  2563 ;; Hardware stack levels used: 1
  2564 ;; Hardware stack levels required when called: 3
  2565 ;; This function calls:
  2566 ;;		_lcd_send_byte
  2567 ;; This function is called by:
  2568 ;;		_lcd_refresh
  2569 ;; This function uses a non-reentrant model
  2570 ;;
  2571                           
  2572     067B                     _lcd_char:	
  2573                           ;psect for function _lcd_char
  2574                           
  2575                           
  2576                           ;incstack = 0
  2577                           ; Regs used in _lcd_char: [wreg+status,2+status,0+pclath+cstack]
  2578                           ;lcd_char@c stored from wreg
  2579     067B  1283               	bcf	3,5	;RP0=0, select bank0
  2580     067C  1303               	bcf	3,6	;RP1=0, select bank0
  2581     067D  00DE               	movwf	lcd_char@c
  2582     067E                     l1939:
  2583                           
  2584                           ;main.c: 137:     lcd_send_byte(1, (uint8_t)c);
  2585     067E  085E               	movf	lcd_char@c,w
  2586     067F  00DB               	movwf	lcd_send_byte@data
  2587     0680  3001               	movlw	1
  2588     0681  118A  2564  118A   	fcall	_lcd_send_byte
  2589     0684                     l100:
  2590     0684  0008               	return
  2591     0685                     __end_of_lcd_char:
  2592                           
  2593                           	psect	text13
  2594     0586                     __ptext13:	
  2595 ;; *************** function _buzzer_beep *****************
  2596 ;; Defined at:
  2597 ;;		line 185 in file "main.c"
  2598 ;; Parameters:    Size  Location     Type
  2599 ;;  duration_ms     2   12[BANK0 ] unsigned short 
  2600 ;; Auto vars:     Size  Location     Type
  2601 ;;		None
  2602 ;; Return value:  Size  Location     Type
  2603 ;;                  1    wreg      void 
  2604 ;; Registers used:
  2605 ;;		wreg, status,2, status,0
  2606 ;; Tracked objects:
  2607 ;;		On entry : 0/0
  2608 ;;		On exit  : 0/0
  2609 ;;		Unchanged: 0/0
  2610 ;; Data sizes:     COMMON   BANK0   BANK1
  2611 ;;      Params:         0       2       0
  2612 ;;      Locals:         0       0       0
  2613 ;;      Temps:          0       1       0
  2614 ;;      Totals:         0       3       0
  2615 ;;Total ram usage:        3 bytes
  2616 ;; Hardware stack levels used: 1
  2617 ;; Hardware stack levels required when called: 2
  2618 ;; This function calls:
  2619 ;;		Nothing
  2620 ;; This function is called by:
  2621 ;;		_process_key
  2622 ;;		_main
  2623 ;; This function uses a non-reentrant model
  2624 ;;
  2625                           
  2626     0586                     _buzzer_beep:	
  2627                           ;psect for function _buzzer_beep
  2628                           
  2629     0586                     l2011:	
  2630                           ;incstack = 0
  2631                           ; Regs used in _buzzer_beep: [wreg+status,2+status,0]
  2632                           
  2633                           
  2634                           ;main.c: 186:     PORTCbits.RC0 = 1;
  2635     0586  1283               	bcf	3,5	;RP0=0, select bank0
  2636     0587  1303               	bcf	3,6	;RP1=0, select bank0
  2637     0588  1407               	bsf	7,0	;volatile
  2638                           
  2639                           ;main.c: 187:     while (duration_ms--) _delay((unsigned long)((1)*(4000000UL/4000.0)));
  2640     0589  2D93               	goto	l2015
  2641     058A                     l2013:
  2642     058A  30C7               	movlw	199
  2643     058B  1283               	bcf	3,5	;RP0=0, select bank0
  2644     058C  1303               	bcf	3,6	;RP1=0, select bank0
  2645     058D  00DA               	movwf	??_buzzer_beep
  2646     058E                     u2027:
  2647     058E  2D8F               	nop2
  2648     058F  0BDA               	decfsz	??_buzzer_beep,f
  2649     0590  2D8E               	goto	u2027
  2650     0591  2D92               	nop2
  2651     0592  0000               	nop
  2652     0593                     l2015:
  2653     0593  3001               	movlw	1
  2654     0594  1283               	bcf	3,5	;RP0=0, select bank0
  2655     0595  1303               	bcf	3,6	;RP1=0, select bank0
  2656     0596  02D8               	subwf	buzzer_beep@duration_ms,f
  2657     0597  3000               	movlw	0
  2658     0598  1C03               	skipc
  2659     0599  03D9               	decf	buzzer_beep@duration_ms+1,f
  2660     059A  02D9               	subwf	buzzer_beep@duration_ms+1,f
  2661     059B  0A58               	incf	buzzer_beep@duration_ms,w
  2662     059C  1D03               	skipz
  2663     059D  2DA2               	goto	u1511
  2664     059E  0A59               	incf	buzzer_beep@duration_ms+1,w
  2665     059F  1D03               	btfss	3,2
  2666     05A0  2DA2               	goto	u1511
  2667     05A1  2DA3               	goto	u1510
  2668     05A2                     u1511:
  2669     05A2  2D8A               	goto	l2013
  2670     05A3                     u1510:
  2671     05A3                     l130:
  2672                           
  2673                           ;main.c: 188:     PORTCbits.RC0 = 0;
  2674     05A3  1007               	bcf	7,0	;volatile
  2675     05A4                     l131:
  2676     05A4  0008               	return
  2677     05A5                     __end_of_buzzer_beep:
  2678                           
  2679                           	psect	text14
  2680     04D4                     __ptext14:	
  2681 ;; *************** function _apply_case *****************
  2682 ;; Defined at:
  2683 ;;		line 352 in file "main.c"
  2684 ;; Parameters:    Size  Location     Type
  2685 ;;  c               1    wreg     unsigned char 
  2686 ;; Auto vars:     Size  Location     Type
  2687 ;;  c               1   16[BANK0 ] unsigned char 
  2688 ;; Return value:  Size  Location     Type
  2689 ;;                  1    wreg      unsigned char 
  2690 ;; Registers used:
  2691 ;;		wreg, status,2, status,0
  2692 ;; Tracked objects:
  2693 ;;		On entry : 0/0
  2694 ;;		On exit  : 0/0
  2695 ;;		Unchanged: 0/0
  2696 ;; Data sizes:     COMMON   BANK0   BANK1
  2697 ;;      Params:         0       0       0
  2698 ;;      Locals:         0       3       0
  2699 ;;      Temps:          0       2       0
  2700 ;;      Totals:         0       5       0
  2701 ;;Total ram usage:        5 bytes
  2702 ;; Hardware stack levels used: 1
  2703 ;; Hardware stack levels required when called: 2
  2704 ;; This function calls:
  2705 ;;		Nothing
  2706 ;; This function is called by:
  2707 ;;		_process_key
  2708 ;; This function uses a non-reentrant model
  2709 ;;
  2710                           
  2711     04D4                     _apply_case:	
  2712                           ;psect for function _apply_case
  2713                           
  2714                           
  2715                           ;incstack = 0
  2716                           ; Regs used in _apply_case: [wreg+status,2+status,0]
  2717                           ;apply_case@c stored from wreg
  2718     04D4  1283               	bcf	3,5	;RP0=0, select bank0
  2719     04D5  1303               	bcf	3,6	;RP1=0, select bank0
  2720     04D6  00DC               	movwf	apply_case@c
  2721     04D7                     l2075:
  2722                           
  2723                           ;main.c: 353:     if (c >= 'A' && c <= 'Z')
  2724     04D7  3041               	movlw	65
  2725     04D8  025C               	subwf	apply_case@c,w
  2726     04D9  1C03               	skipc
  2727     04DA  2CDC               	goto	u1591
  2728     04DB  2CDD               	goto	u1590
  2729     04DC                     u1591:
  2730     04DC  2CFA               	goto	l2087
  2731     04DD                     u1590:
  2732     04DD                     l2077:
  2733     04DD  305B               	movlw	91
  2734     04DE  025C               	subwf	apply_case@c,w
  2735     04DF  1803               	skipnc
  2736     04E0  2CE2               	goto	u1601
  2737     04E1  2CE3               	goto	u1600
  2738     04E2                     u1601:
  2739     04E2  2CFA               	goto	l2087
  2740     04E3                     u1600:
  2741     04E3                     l2079:
  2742                           
  2743                           ;main.c: 354:         return uppercase ? c : (char)(c + 32);
  2744     04E3  082B               	movf	_uppercase,w
  2745     04E4  1D03               	btfss	3,2
  2746     04E5  2CE7               	goto	u1611
  2747     04E6  2CE8               	goto	u1610
  2748     04E7                     u1611:
  2749     04E7  2CF1               	goto	l2083
  2750     04E8                     u1610:
  2751     04E8                     l2081:
  2752     04E8  085C               	movf	apply_case@c,w
  2753     04E9  3E20               	addlw	32
  2754     04EA  00D8               	movwf	??_apply_case
  2755     04EB  01D9               	clrf	??_apply_case+1
  2756     04EC  0858               	movf	??_apply_case,w
  2757     04ED  00DA               	movwf	_apply_case$441
  2758     04EE  0859               	movf	??_apply_case+1,w
  2759     04EF  00DB               	movwf	_apply_case$441+1
  2760     04F0  2CF8               	goto	l196
  2761     04F1                     l2083:
  2762     04F1  085C               	movf	apply_case@c,w
  2763     04F2  00D8               	movwf	??_apply_case
  2764     04F3  01D9               	clrf	??_apply_case+1
  2765     04F4  0858               	movf	??_apply_case,w
  2766     04F5  00DA               	movwf	_apply_case$441
  2767     04F6  0859               	movf	??_apply_case+1,w
  2768     04F7  00DB               	movwf	_apply_case$441+1
  2769     04F8                     l196:
  2770     04F8  085A               	movf	_apply_case$441,w
  2771     04F9  2CFB               	goto	l197
  2772     04FA                     l2087:
  2773                           
  2774                           ;main.c: 355:     return c;
  2775     04FA  085C               	movf	apply_case@c,w
  2776     04FB                     l197:
  2777     04FB  0008               	return
  2778     04FC                     __end_of_apply_case:
  2779                           
  2780                           	psect	text15
  2781     03C7                     __ptext15:	
  2782 ;; *************** function ___awmod *****************
  2783 ;; Defined at:
  2784 ;;		line 5 in file "C:\Program Files\Microchip\xc8\v3.10\pic\sources\c99\common\awmod.c"
  2785 ;; Parameters:    Size  Location     Type
  2786 ;;  divisor         2   12[BANK0 ] int 
  2787 ;;  dividend        2   14[BANK0 ] int 
  2788 ;; Auto vars:     Size  Location     Type
  2789 ;;  sign            1   17[BANK0 ] unsigned char 
  2790 ;;  counter         1   16[BANK0 ] unsigned char 
  2791 ;; Return value:  Size  Location     Type
  2792 ;;                  2   12[BANK0 ] int 
  2793 ;; Registers used:
  2794 ;;		wreg, status,2, status,0
  2795 ;; Tracked objects:
  2796 ;;		On entry : 0/0
  2797 ;;		On exit  : 0/0
  2798 ;;		Unchanged: 0/0
  2799 ;; Data sizes:     COMMON   BANK0   BANK1
  2800 ;;      Params:         0       4       0
  2801 ;;      Locals:         0       2       0
  2802 ;;      Temps:          0       0       0
  2803 ;;      Totals:         0       6       0
  2804 ;;Total ram usage:        6 bytes
  2805 ;; Hardware stack levels used: 1
  2806 ;; Hardware stack levels required when called: 2
  2807 ;; This function calls:
  2808 ;;		Nothing
  2809 ;; This function is called by:
  2810 ;;		_process_key
  2811 ;; This function uses a non-reentrant model
  2812 ;;
  2813                           
  2814     03C7                     ___awmod:	
  2815                           ;psect for function ___awmod
  2816                           
  2817     03C7                     l2091:	
  2818                           ;incstack = 0
  2819                           ; Regs used in ___awmod: [wreg+status,2+status,0]
  2820                           
  2821     03C7  1283               	bcf	3,5	;RP0=0, select bank0
  2822     03C8  1303               	bcf	3,6	;RP1=0, select bank0
  2823     03C9  01DD               	clrf	___awmod@sign
  2824     03CA                     l2093:
  2825     03CA  1FDB               	btfss	___awmod@dividend+1,7
  2826     03CB  2BCD               	goto	u1621
  2827     03CC  2BCE               	goto	u1620
  2828     03CD                     u1621:
  2829     03CD  2BD5               	goto	l2099
  2830     03CE                     u1620:
  2831     03CE                     l2095:
  2832     03CE  09DA               	comf	___awmod@dividend,f
  2833     03CF  09DB               	comf	___awmod@dividend+1,f
  2834     03D0  0ADA               	incf	___awmod@dividend,f
  2835     03D1  1903               	skipnz
  2836     03D2  0ADB               	incf	___awmod@dividend+1,f
  2837     03D3                     l2097:
  2838     03D3  3001               	movlw	1
  2839     03D4  00DD               	movwf	___awmod@sign
  2840     03D5                     l2099:
  2841     03D5  1FD9               	btfss	___awmod@divisor+1,7
  2842     03D6  2BD8               	goto	u1631
  2843     03D7  2BD9               	goto	u1630
  2844     03D8                     u1631:
  2845     03D8  2BDE               	goto	l2103
  2846     03D9                     u1630:
  2847     03D9                     l2101:
  2848     03D9  09D8               	comf	___awmod@divisor,f
  2849     03DA  09D9               	comf	___awmod@divisor+1,f
  2850     03DB  0AD8               	incf	___awmod@divisor,f
  2851     03DC  1903               	skipnz
  2852     03DD  0AD9               	incf	___awmod@divisor+1,f
  2853     03DE                     l2103:
  2854     03DE  0858               	movf	___awmod@divisor,w
  2855     03DF  0459               	iorwf	___awmod@divisor+1,w
  2856     03E0  1903               	btfsc	3,2
  2857     03E1  2BE3               	goto	u1641
  2858     03E2  2BE4               	goto	u1640
  2859     03E3                     u1641:
  2860     03E3  2C11               	goto	l2121
  2861     03E4                     u1640:
  2862     03E4                     l2105:
  2863     03E4  3001               	movlw	1
  2864     03E5  00DC               	movwf	___awmod@counter
  2865     03E6  2BF0               	goto	l2111
  2866     03E7                     l2107:
  2867     03E7  3001               	movlw	1
  2868     03E8                     u1655:
  2869     03E8  1003               	clrc
  2870     03E9  0DD8               	rlf	___awmod@divisor,f
  2871     03EA  0DD9               	rlf	___awmod@divisor+1,f
  2872     03EB  3EFF               	addlw	-1
  2873     03EC  1D03               	skipz
  2874     03ED  2BE8               	goto	u1655
  2875     03EE                     l2109:
  2876     03EE  3001               	movlw	1
  2877     03EF  07DC               	addwf	___awmod@counter,f
  2878     03F0                     l2111:
  2879     03F0  1FD9               	btfss	___awmod@divisor+1,7
  2880     03F1  2BF3               	goto	u1661
  2881     03F2  2BF4               	goto	u1660
  2882     03F3                     u1661:
  2883     03F3  2BE7               	goto	l2107
  2884     03F4                     u1660:
  2885     03F4                     l2113:
  2886     03F4  0859               	movf	___awmod@divisor+1,w
  2887     03F5  025B               	subwf	___awmod@dividend+1,w
  2888     03F6  1D03               	skipz
  2889     03F7  2BFA               	goto	u1675
  2890     03F8  0858               	movf	___awmod@divisor,w
  2891     03F9  025A               	subwf	___awmod@dividend,w
  2892     03FA                     u1675:
  2893     03FA  1C03               	skipc
  2894     03FB  2BFD               	goto	u1671
  2895     03FC  2BFE               	goto	u1670
  2896     03FD                     u1671:
  2897     03FD  2C04               	goto	l2117
  2898     03FE                     u1670:
  2899     03FE                     l2115:
  2900     03FE  0858               	movf	___awmod@divisor,w
  2901     03FF  02DA               	subwf	___awmod@dividend,f
  2902     0400  0859               	movf	___awmod@divisor+1,w
  2903     0401  1C03               	skipc
  2904     0402  03DB               	decf	___awmod@dividend+1,f
  2905     0403  02DB               	subwf	___awmod@dividend+1,f
  2906     0404                     l2117:
  2907     0404  3001               	movlw	1
  2908     0405                     u1685:
  2909     0405  1003               	clrc
  2910     0406  0CD9               	rrf	___awmod@divisor+1,f
  2911     0407  0CD8               	rrf	___awmod@divisor,f
  2912     0408  3EFF               	addlw	-1
  2913     0409  1D03               	skipz
  2914     040A  2C05               	goto	u1685
  2915     040B                     l2119:
  2916     040B  3001               	movlw	1
  2917     040C  02DC               	subwf	___awmod@counter,f
  2918     040D  1D03               	btfss	3,2
  2919     040E  2C10               	goto	u1691
  2920     040F  2C11               	goto	u1690
  2921     0410                     u1691:
  2922     0410  2BF4               	goto	l2113
  2923     0411                     u1690:
  2924     0411                     l2121:
  2925     0411  085D               	movf	___awmod@sign,w
  2926     0412  1903               	btfsc	3,2
  2927     0413  2C15               	goto	u1701
  2928     0414  2C16               	goto	u1700
  2929     0415                     u1701:
  2930     0415  2C1B               	goto	l2125
  2931     0416                     u1700:
  2932     0416                     l2123:
  2933     0416  09DA               	comf	___awmod@dividend,f
  2934     0417  09DB               	comf	___awmod@dividend+1,f
  2935     0418  0ADA               	incf	___awmod@dividend,f
  2936     0419  1903               	skipnz
  2937     041A  0ADB               	incf	___awmod@dividend+1,f
  2938     041B                     l2125:
  2939     041B  085B               	movf	___awmod@dividend+1,w
  2940     041C  00D9               	movwf	?___awmod+1
  2941     041D  085A               	movf	___awmod@dividend,w
  2942     041E  00D8               	movwf	?___awmod
  2943     041F                     l479:
  2944     041F  0008               	return
  2945     0420                     __end_of___awmod:
  2946                           
  2947                           	psect	text16
  2948     036A                     __ptext16:	
  2949 ;; *************** function _lcd_init *****************
  2950 ;; Defined at:
  2951 ;;		line 140 in file "main.c"
  2952 ;; Parameters:    Size  Location     Type
  2953 ;;		None
  2954 ;; Auto vars:     Size  Location     Type
  2955 ;;		None
  2956 ;; Return value:  Size  Location     Type
  2957 ;;                  1    wreg      void 
  2958 ;; Registers used:
  2959 ;;		wreg, status,2, status,0, pclath, cstack
  2960 ;; Tracked objects:
  2961 ;;		On entry : 0/0
  2962 ;;		On exit  : 0/0
  2963 ;;		Unchanged: 0/0
  2964 ;; Data sizes:     COMMON   BANK0   BANK1
  2965 ;;      Params:         0       0       0
  2966 ;;      Locals:         0       0       0
  2967 ;;      Temps:          0       2       0
  2968 ;;      Totals:         0       2       0
  2969 ;;Total ram usage:        2 bytes
  2970 ;; Hardware stack levels used: 1
  2971 ;; Hardware stack levels required when called: 6
  2972 ;; This function calls:
  2973 ;;		_lcd_cmd
  2974 ;;		_lcd_send_nibble
  2975 ;; This function is called by:
  2976 ;;		_main
  2977 ;; This function uses a non-reentrant model
  2978 ;;
  2979                           
  2980     036A                     _lcd_init:	
  2981                           ;psect for function _lcd_init
  2982                           
  2983     036A                     l2129:	
  2984                           ;incstack = 0
  2985                           ; Regs used in _lcd_init: [wreg+status,2+status,0+pclath+cstack]
  2986                           
  2987                           
  2988                           ;main.c: 141:     TRISA = 0x00;
  2989     036A  1683               	bsf	3,5	;RP0=1, select bank1
  2990     036B  1303               	bcf	3,6	;RP1=0, select bank1
  2991     036C  0185               	clrf	5	;volatile
  2992                           
  2993                           ;main.c: 142:     PORTA = 0x00;
  2994     036D  1283               	bcf	3,5	;RP0=0, select bank0
  2995     036E  1303               	bcf	3,6	;RP1=0, select bank0
  2996     036F  0185               	clrf	5	;volatile
  2997     0370                     l2131:
  2998                           
  2999                           ;main.c: 143:     _delay((unsigned long)((20)*(4000000UL/4000.0)));
  3000     0370  301A               	movlw	26
  3001     0371  1283               	bcf	3,5	;RP0=0, select bank0
  3002     0372  1303               	bcf	3,6	;RP1=0, select bank0
  3003     0373  00E2               	movwf	??_lcd_init+1
  3004     0374  30F8               	movlw	248
  3005     0375  00E1               	movwf	??_lcd_init
  3006     0376                     u2037:
  3007     0376  0BE1               	decfsz	??_lcd_init,f
  3008     0377  2B76               	goto	u2037
  3009     0378  0BE2               	decfsz	??_lcd_init+1,f
  3010     0379  2B76               	goto	u2037
  3011     037A                     l2133:
  3012                           
  3013                           ;main.c: 145:     PORTAbits.RA0 = 0;
  3014     037A  1283               	bcf	3,5	;RP0=0, select bank0
  3015     037B  1303               	bcf	3,6	;RP1=0, select bank0
  3016     037C  1005               	bcf	5,0	;volatile
  3017     037D                     l2135:
  3018                           
  3019                           ;main.c: 146:     lcd_send_nibble(0x03); _delay((unsigned long)((5)*(4000000UL/4000.0)))
      +                          ;
  3020     037D  3003               	movlw	3
  3021     037E  118A  2615  118A   	fcall	_lcd_send_nibble
  3022     0381                     l2137:
  3023     0381  3007               	movlw	7
  3024     0382  1283               	bcf	3,5	;RP0=0, select bank0
  3025     0383  1303               	bcf	3,6	;RP1=0, select bank0
  3026     0384  00E2               	movwf	??_lcd_init+1
  3027     0385  307C               	movlw	124
  3028     0386  00E1               	movwf	??_lcd_init
  3029     0387                     u2047:
  3030     0387  0BE1               	decfsz	??_lcd_init,f
  3031     0388  2B87               	goto	u2047
  3032     0389  0BE2               	decfsz	??_lcd_init+1,f
  3033     038A  2B87               	goto	u2047
  3034     038B  2B8C               	nop2
  3035     038C                     l2139:
  3036                           
  3037                           ;main.c: 147:     lcd_send_nibble(0x03); _delay((unsigned long)((150)*(4000000UL/4000000
      +                          .0)));
  3038     038C  3003               	movlw	3
  3039     038D  118A  2615  118A   	fcall	_lcd_send_nibble
  3040     0390                     l2141:
  3041     0390  3031               	movlw	49
  3042     0391  1283               	bcf	3,5	;RP0=0, select bank0
  3043     0392  1303               	bcf	3,6	;RP1=0, select bank0
  3044     0393  00E1               	movwf	??_lcd_init
  3045     0394                     u2057:
  3046     0394  0BE1               	decfsz	??_lcd_init,f
  3047     0395  2B94               	goto	u2057
  3048     0396  0000               	nop
  3049     0397                     l2143:
  3050                           
  3051                           ;main.c: 148:     lcd_send_nibble(0x03); _delay((unsigned long)((50)*(4000000UL/4000000.
      +                          0)));
  3052     0397  3003               	movlw	3
  3053     0398  118A  2615  118A   	fcall	_lcd_send_nibble
  3054     039B                     l2145:
  3055     039B  3010               	movlw	16
  3056     039C  1283               	bcf	3,5	;RP0=0, select bank0
  3057     039D  1303               	bcf	3,6	;RP1=0, select bank0
  3058     039E  00E1               	movwf	??_lcd_init
  3059     039F                     u2067:
  3060     039F  0BE1               	decfsz	??_lcd_init,f
  3061     03A0  2B9F               	goto	u2067
  3062     03A1                     l2147:
  3063                           
  3064                           ;main.c: 149:     lcd_send_nibble(0x02); _delay((unsigned long)((50)*(4000000UL/4000000.
      +                          0)));
  3065     03A1  3002               	movlw	2
  3066     03A2  118A  2615  118A   	fcall	_lcd_send_nibble
  3067     03A5                     l2149:
  3068     03A5  3010               	movlw	16
  3069     03A6  1283               	bcf	3,5	;RP0=0, select bank0
  3070     03A7  1303               	bcf	3,6	;RP1=0, select bank0
  3071     03A8  00E1               	movwf	??_lcd_init
  3072     03A9                     u2077:
  3073     03A9  0BE1               	decfsz	??_lcd_init,f
  3074     03AA  2BA9               	goto	u2077
  3075     03AB                     l2151:
  3076                           
  3077                           ;main.c: 151:     lcd_cmd(0x28);
  3078     03AB  3028               	movlw	40
  3079     03AC  118A  25A5  118A   	fcall	_lcd_cmd
  3080     03AF                     l2153:
  3081                           
  3082                           ;main.c: 152:     lcd_cmd(0x0C);
  3083     03AF  300C               	movlw	12
  3084     03B0  118A  25A5  118A   	fcall	_lcd_cmd
  3085     03B3                     l2155:
  3086                           
  3087                           ;main.c: 153:     lcd_cmd(0x06);
  3088     03B3  3006               	movlw	6
  3089     03B4  118A  25A5  118A   	fcall	_lcd_cmd
  3090     03B7                     l2157:
  3091                           
  3092                           ;main.c: 154:     lcd_cmd(0x01);
  3093     03B7  3001               	movlw	1
  3094     03B8  118A  25A5  118A   	fcall	_lcd_cmd
  3095     03BB                     l2159:
  3096                           
  3097                           ;main.c: 155:     _delay((unsigned long)((2)*(4000000UL/4000.0)));
  3098     03BB  3003               	movlw	3
  3099     03BC  1283               	bcf	3,5	;RP0=0, select bank0
  3100     03BD  1303               	bcf	3,6	;RP1=0, select bank0
  3101     03BE  00E2               	movwf	??_lcd_init+1
  3102     03BF  3097               	movlw	151
  3103     03C0  00E1               	movwf	??_lcd_init
  3104     03C1                     u2087:
  3105     03C1  0BE1               	decfsz	??_lcd_init,f
  3106     03C2  2BC1               	goto	u2087
  3107     03C3  0BE2               	decfsz	??_lcd_init+1,f
  3108     03C4  2BC1               	goto	u2087
  3109     03C5  0000               	nop
  3110     03C6                     l103:
  3111     03C6  0008               	return
  3112     03C7                     __end_of_lcd_init:
  3113                           
  3114                           	psect	text17
  3115     05A5                     __ptext17:	
  3116 ;; *************** function _lcd_cmd *****************
  3117 ;; Defined at:
  3118 ;;		line 131 in file "main.c"
  3119 ;; Parameters:    Size  Location     Type
  3120 ;;  cmd             1    wreg     unsigned char 
  3121 ;; Auto vars:     Size  Location     Type
  3122 ;;  cmd             1   20[BANK0 ] unsigned char 
  3123 ;; Return value:  Size  Location     Type
  3124 ;;                  1    wreg      void 
  3125 ;; Registers used:
  3126 ;;		wreg, status,2, status,0, pclath, cstack
  3127 ;; Tracked objects:
  3128 ;;		On entry : 0/0
  3129 ;;		On exit  : 0/0
  3130 ;;		Unchanged: 0/0
  3131 ;; Data sizes:     COMMON   BANK0   BANK1
  3132 ;;      Params:         0       0       0
  3133 ;;      Locals:         0       1       0
  3134 ;;      Temps:          0       2       0
  3135 ;;      Totals:         0       3       0
  3136 ;;Total ram usage:        3 bytes
  3137 ;; Hardware stack levels used: 1
  3138 ;; Hardware stack levels required when called: 2
  3139 ;; This function calls:
  3140 ;;		_lcd_send_byte
  3141 ;; This function is called by:
  3142 ;;		_lcd_init
  3143 ;;		_lcd_set_cursor
  3144 ;;		_lcd_refresh
  3145 ;; This function uses a non-reentrant model
  3146 ;;
  3147                           
  3148     05A5                     _lcd_cmd:	
  3149                           ;psect for function _lcd_cmd
  3150                           
  3151                           
  3152                           ;incstack = 0
  3153                           ; Regs used in _lcd_cmd: [wreg+status,2+status,0+pclath+cstack]
  3154                           ;lcd_cmd@cmd stored from wreg
  3155     05A5  1283               	bcf	3,5	;RP0=0, select bank0
  3156     05A6  1303               	bcf	3,6	;RP1=0, select bank0
  3157     05A7  00E0               	movwf	lcd_cmd@cmd
  3158     05A8                     l1933:
  3159                           
  3160                           ;main.c: 132:     lcd_send_byte(0, cmd);
  3161     05A8  0860               	movf	lcd_cmd@cmd,w
  3162     05A9  00DB               	movwf	lcd_send_byte@data
  3163     05AA  3000               	movlw	0
  3164     05AB  118A  2564  118A   	fcall	_lcd_send_byte
  3165     05AE                     l1935:
  3166                           
  3167                           ;main.c: 133:     if (cmd <= 0x03) _delay((unsigned long)((2)*(4000000UL/4000.0)));
  3168     05AE  3004               	movlw	4
  3169     05AF  1283               	bcf	3,5	;RP0=0, select bank0
  3170     05B0  1303               	bcf	3,6	;RP1=0, select bank0
  3171     05B1  0260               	subwf	lcd_cmd@cmd,w
  3172     05B2  1803               	skipnc
  3173     05B3  2DB5               	goto	u1431
  3174     05B4  2DB6               	goto	u1430
  3175     05B5                     u1431:
  3176     05B5  2DC1               	goto	l97
  3177     05B6                     u1430:
  3178     05B6                     l1937:
  3179     05B6  3003               	movlw	3
  3180     05B7  1283               	bcf	3,5	;RP0=0, select bank0
  3181     05B8  1303               	bcf	3,6	;RP1=0, select bank0
  3182     05B9  00DF               	movwf	??_lcd_cmd+1
  3183     05BA  3097               	movlw	151
  3184     05BB  00DE               	movwf	??_lcd_cmd
  3185     05BC                     u2097:
  3186     05BC  0BDE               	decfsz	??_lcd_cmd,f
  3187     05BD  2DBC               	goto	u2097
  3188     05BE  0BDF               	decfsz	??_lcd_cmd+1,f
  3189     05BF  2DBC               	goto	u2097
  3190     05C0  0000               	nop
  3191     05C1                     l97:
  3192     05C1  0008               	return
  3193     05C2                     __end_of_lcd_cmd:
  3194                           
  3195                           	psect	text18
  3196     0564                     __ptext18:	
  3197 ;; *************** function _lcd_send_byte *****************
  3198 ;; Defined at:
  3199 ;;		line 124 in file "main.c"
  3200 ;; Parameters:    Size  Location     Type
  3201 ;;  rs              1    wreg     unsigned char 
  3202 ;;  data            1   15[BANK0 ] unsigned char 
  3203 ;; Auto vars:     Size  Location     Type
  3204 ;;  rs              1   17[BANK0 ] unsigned char 
  3205 ;; Return value:  Size  Location     Type
  3206 ;;                  1    wreg      void 
  3207 ;; Registers used:
  3208 ;;		wreg, status,2, status,0, pclath, cstack
  3209 ;; Tracked objects:
  3210 ;;		On entry : 0/0
  3211 ;;		On exit  : 0/0
  3212 ;;		Unchanged: 0/0
  3213 ;; Data sizes:     COMMON   BANK0   BANK1
  3214 ;;      Params:         0       1       0
  3215 ;;      Locals:         0       1       0
  3216 ;;      Temps:          0       1       0
  3217 ;;      Totals:         0       3       0
  3218 ;;Total ram usage:        3 bytes
  3219 ;; Hardware stack levels used: 1
  3220 ;; Hardware stack levels required when called: 2
  3221 ;; This function calls:
  3222 ;;		_lcd_send_nibble
  3223 ;; This function is called by:
  3224 ;;		_lcd_cmd
  3225 ;;		_lcd_char
  3226 ;; This function uses a non-reentrant model
  3227 ;;
  3228                           
  3229     0564                     _lcd_send_byte:	
  3230                           ;psect for function _lcd_send_byte
  3231                           
  3232                           
  3233                           ;incstack = 0
  3234                           ; Regs used in _lcd_send_byte: [wreg+status,2+status,0+pclath+cstack]
  3235                           ;lcd_send_byte@rs stored from wreg
  3236     0564  1283               	bcf	3,5	;RP0=0, select bank0
  3237     0565  1303               	bcf	3,6	;RP1=0, select bank0
  3238     0566  00DD               	movwf	lcd_send_byte@rs
  3239     0567                     l1925:
  3240                           
  3241                           ;main.c: 125:     PORTAbits.RA0 = rs;
  3242     0567  0C5D               	rrf	lcd_send_byte@rs,w
  3243     0568  1C03               	skipc
  3244     0569  1005               	bcf	5,0	;volatile
  3245     056A  1803               	skipnc
  3246     056B  1405               	bsf	5,0	;volatile
  3247     056C                     l1927:
  3248                           
  3249                           ;main.c: 126:     lcd_send_nibble(data >> 4);
  3250     056C  085B               	movf	lcd_send_byte@data,w
  3251     056D  00DC               	movwf	??_lcd_send_byte
  3252     056E  3004               	movlw	4
  3253     056F                     u1425:
  3254     056F  1003               	clrc
  3255     0570  0CDC               	rrf	??_lcd_send_byte,f
  3256     0571  3EFF               	addlw	-1
  3257     0572  1D03               	skipz
  3258     0573  2D6F               	goto	u1425
  3259     0574  085C               	movf	??_lcd_send_byte,w
  3260     0575  118A  2615  118A   	fcall	_lcd_send_nibble
  3261     0578                     l1929:
  3262                           
  3263                           ;main.c: 127:     lcd_send_nibble(data & 0x0F);
  3264     0578  1283               	bcf	3,5	;RP0=0, select bank0
  3265     0579  1303               	bcf	3,6	;RP1=0, select bank0
  3266     057A  085B               	movf	lcd_send_byte@data,w
  3267     057B  390F               	andlw	15
  3268     057C  118A  2615  118A   	fcall	_lcd_send_nibble
  3269     057F                     l1931:
  3270                           
  3271                           ;main.c: 128:     _delay((unsigned long)((50)*(4000000UL/4000000.0)));
  3272     057F  3010               	movlw	16
  3273     0580  1283               	bcf	3,5	;RP0=0, select bank0
  3274     0581  1303               	bcf	3,6	;RP1=0, select bank0
  3275     0582  00DC               	movwf	??_lcd_send_byte
  3276     0583                     u2107:
  3277     0583  0BDC               	decfsz	??_lcd_send_byte,f
  3278     0584  2D83               	goto	u2107
  3279     0585                     l93:
  3280     0585  0008               	return
  3281     0586                     __end_of_lcd_send_byte:
  3282                           
  3283                           	psect	text19
  3284     0615                     __ptext19:	
  3285 ;; *************** function _lcd_send_nibble *****************
  3286 ;; Defined at:
  3287 ;;		line 119 in file "main.c"
  3288 ;; Parameters:    Size  Location     Type
  3289 ;;  nibble          1    wreg     unsigned char 
  3290 ;; Auto vars:     Size  Location     Type
  3291 ;;  nibble          1   14[BANK0 ] unsigned char 
  3292 ;; Return value:  Size  Location     Type
  3293 ;;                  1    wreg      void 
  3294 ;; Registers used:
  3295 ;;		wreg, status,2, status,0, pclath, cstack
  3296 ;; Tracked objects:
  3297 ;;		On entry : 0/0
  3298 ;;		On exit  : 0/0
  3299 ;;		Unchanged: 0/0
  3300 ;; Data sizes:     COMMON   BANK0   BANK1
  3301 ;;      Params:         0       0       0
  3302 ;;      Locals:         0       1       0
  3303 ;;      Temps:          0       1       0
  3304 ;;      Totals:         0       2       0
  3305 ;;Total ram usage:        2 bytes
  3306 ;; Hardware stack levels used: 1
  3307 ;; Hardware stack levels required when called: 2
  3308 ;; This function calls:
  3309 ;;		_lcd_pulse_enable
  3310 ;; This function is called by:
  3311 ;;		_lcd_send_byte
  3312 ;;		_lcd_init
  3313 ;; This function uses a non-reentrant model
  3314 ;;
  3315                           
  3316     0615                     _lcd_send_nibble:	
  3317                           ;psect for function _lcd_send_nibble
  3318                           
  3319                           
  3320                           ;incstack = 0
  3321                           ; Regs used in _lcd_send_nibble: [wreg+status,2+status,0+pclath+cstack]
  3322                           ;lcd_send_nibble@nibble stored from wreg
  3323     0615  1283               	bcf	3,5	;RP0=0, select bank0
  3324     0616  1303               	bcf	3,6	;RP1=0, select bank0
  3325     0617  00DA               	movwf	lcd_send_nibble@nibble
  3326     0618                     l1921:
  3327                           
  3328                           ;main.c: 120:     PORTA = (PORTA & 0x03) | ((nibble & 0x0F) << 2);
  3329     0618  085A               	movf	lcd_send_nibble@nibble,w
  3330     0619  390F               	andlw	15
  3331     061A  00D9               	movwf	??_lcd_send_nibble
  3332     061B  3002               	movlw	2
  3333     061C                     u1415:
  3334     061C  1003               	clrc
  3335     061D  0DD9               	rlf	??_lcd_send_nibble,f
  3336     061E  3EFF               	addlw	-1
  3337     061F  1D03               	skipz
  3338     0620  2E1C               	goto	u1415
  3339     0621  0805               	movf	5,w	;volatile
  3340     0622  3903               	andlw	3
  3341     0623  0459               	iorwf	??_lcd_send_nibble,w
  3342     0624  0085               	movwf	5	;volatile
  3343     0625                     l1923:
  3344                           
  3345                           ;main.c: 121:     lcd_pulse_enable();
  3346     0625  118A  266D  118A   	fcall	_lcd_pulse_enable
  3347     0628                     l90:
  3348     0628  0008               	return
  3349     0629                     __end_of_lcd_send_nibble:
  3350                           
  3351                           	psect	text20
  3352     066D                     __ptext20:	
  3353 ;; *************** function _lcd_pulse_enable *****************
  3354 ;; Defined at:
  3355 ;;		line 112 in file "main.c"
  3356 ;; Parameters:    Size  Location     Type
  3357 ;;		None
  3358 ;; Auto vars:     Size  Location     Type
  3359 ;;		None
  3360 ;; Return value:  Size  Location     Type
  3361 ;;                  1    wreg      void 
  3362 ;; Registers used:
  3363 ;;		wreg
  3364 ;; Tracked objects:
  3365 ;;		On entry : 0/0
  3366 ;;		On exit  : 0/0
  3367 ;;		Unchanged: 0/0
  3368 ;; Data sizes:     COMMON   BANK0   BANK1
  3369 ;;      Params:         0       0       0
  3370 ;;      Locals:         0       0       0
  3371 ;;      Temps:          0       1       0
  3372 ;;      Totals:         0       1       0
  3373 ;;Total ram usage:        1 bytes
  3374 ;; Hardware stack levels used: 1
  3375 ;; Hardware stack levels required when called: 2
  3376 ;; This function calls:
  3377 ;;		Nothing
  3378 ;; This function is called by:
  3379 ;;		_lcd_send_nibble
  3380 ;; This function uses a non-reentrant model
  3381 ;;
  3382                           
  3383     066D                     _lcd_pulse_enable:	
  3384                           ;psect for function _lcd_pulse_enable
  3385                           
  3386     066D                     l1917:	
  3387                           ;incstack = 0
  3388 ;; hardware stack exceeded
  3389                           ; Regs used in _lcd_pulse_enable: [wreg]
  3390                           
  3391                           
  3392                           ;main.c: 113:     PORTAbits.RA1 = 1;
  3393     066D  1283               	bcf	3,5	;RP0=0, select bank0
  3394     066E  1303               	bcf	3,6	;RP1=0, select bank0
  3395     066F  1485               	bsf	5,1	;volatile
  3396                           
  3397                           ;main.c: 114:     _delay((unsigned long)((1)*(4000000UL/4000000.0)));
  3398     0670  0000               	nop
  3399                           
  3400                           ;main.c: 115:     PORTAbits.RA1 = 0;
  3401     0671  1283               	bcf	3,5	;RP0=0, select bank0
  3402     0672  1303               	bcf	3,6	;RP1=0, select bank0
  3403     0673  1085               	bcf	5,1	;volatile
  3404     0674                     l1919:
  3405                           
  3406                           ;main.c: 116:     _delay((unsigned long)((50)*(4000000UL/4000000.0)));
  3407     0674  3010               	movlw	16
  3408     0675  1283               	bcf	3,5	;RP0=0, select bank0
  3409     0676  1303               	bcf	3,6	;RP1=0, select bank0
  3410     0677  00D8               	movwf	??_lcd_pulse_enable
  3411     0678                     u2117:
  3412     0678  0BD8               	decfsz	??_lcd_pulse_enable,f
  3413     0679  2E78               	goto	u2117
  3414     067A                     l87:
  3415     067A  0008               	return
  3416     067B                     __end_of_lcd_pulse_enable:
  3417                           
  3418                           	psect	text21
  3419     0308                     __ptext21:	
  3420 ;; *************** function _kb_scan *****************
  3421 ;; Defined at:
  3422 ;;		line 193 in file "main.c"
  3423 ;; Parameters:    Size  Location     Type
  3424 ;;		None
  3425 ;; Auto vars:     Size  Location     Type
  3426 ;;  cols            1   13[BANK0 ] unsigned char 
  3427 ;;  col             1   15[BANK0 ] unsigned char 
  3428 ;;  row             1   14[BANK0 ] unsigned char 
  3429 ;; Return value:  Size  Location     Type
  3430 ;;                  1    wreg      unsigned char 
  3431 ;; Registers used:
  3432 ;;		wreg, status,2, status,0
  3433 ;; Tracked objects:
  3434 ;;		On entry : 0/0
  3435 ;;		On exit  : 0/0
  3436 ;;		Unchanged: 0/0
  3437 ;; Data sizes:     COMMON   BANK0   BANK1
  3438 ;;      Params:         0       0       0
  3439 ;;      Locals:         0       3       0
  3440 ;;      Temps:          0       1       0
  3441 ;;      Totals:         0       4       0
  3442 ;;Total ram usage:        4 bytes
  3443 ;; Hardware stack levels used: 1
  3444 ;; Hardware stack levels required when called: 2
  3445 ;; This function calls:
  3446 ;;		Nothing
  3447 ;; This function is called by:
  3448 ;;		_main
  3449 ;; This function uses a non-reentrant model
  3450 ;;
  3451                           
  3452     0308                     _kb_scan:	
  3453                           ;psect for function _kb_scan
  3454                           
  3455     0308                     l2161:	
  3456                           ;incstack = 0
  3457                           ; Regs used in _kb_scan: [wreg+status,2+status,0]
  3458                           
  3459                           
  3460                           ;main.c: 194:     uint8_t row, col;;main.c: 196:     for (row = 0; row < 4; row++) {
  3461     0308  1283               	bcf	3,5	;RP0=0, select bank0
  3462     0309  1303               	bcf	3,6	;RP1=0, select bank0
  3463     030A  01DA               	clrf	kb_scan@row
  3464     030B                     l2163:
  3465     030B  3004               	movlw	4
  3466     030C  025A               	subwf	kb_scan@row,w
  3467     030D  1C03               	skipc
  3468     030E  2B10               	goto	u1711
  3469     030F  2B11               	goto	u1710
  3470     0310                     u1711:
  3471     0310  2B12               	goto	l134
  3472     0311                     u1710:
  3473     0311  2B66               	goto	l135
  3474     0312                     l134:
  3475                           
  3476                           ;main.c: 197:         TRISB = 0xF0;
  3477     0312  30F0               	movlw	240
  3478     0313  1683               	bsf	3,5	;RP0=1, select bank1
  3479     0314  1303               	bcf	3,6	;RP1=0, select bank1
  3480     0315  0086               	movwf	6	;volatile
  3481     0316                     l2167:
  3482                           
  3483                           ;main.c: 198:         PORTB = (~(1 << row)) & 0x0F;
  3484     0316  3001               	movlw	1
  3485     0317  1283               	bcf	3,5	;RP0=0, select bank0
  3486     0318  1303               	bcf	3,6	;RP1=0, select bank0
  3487     0319  00D8               	movwf	??_kb_scan
  3488     031A  0A5A               	incf	kb_scan@row,w
  3489     031B  2B1E               	goto	u1724
  3490     031C                     u1725:
  3491     031C  1003               	clrc
  3492     031D  0DD8               	rlf	??_kb_scan,f
  3493     031E                     u1724:
  3494     031E  3EFF               	addlw	-1
  3495     031F  1D03               	skipz
  3496     0320  2B1C               	goto	u1725
  3497     0321  0858               	movf	??_kb_scan,w
  3498     0322  3AFF               	xorlw	255
  3499     0323  390F               	andlw	15
  3500     0324  0086               	movwf	6	;volatile
  3501     0325                     l2169:
  3502                           
  3503                           ;main.c: 199:         _delay((unsigned long)((10)*(4000000UL/4000000.0)));
  3504     0325  3002               	movlw	2
  3505     0326  1283               	bcf	3,5	;RP0=0, select bank0
  3506     0327  1303               	bcf	3,6	;RP1=0, select bank0
  3507     0328  00D8               	movwf	??_kb_scan
  3508     0329                     u2127:
  3509     0329  0BD8               	decfsz	??_kb_scan,f
  3510     032A  2B29               	goto	u2127
  3511     032B  2B2C               	nop2
  3512     032C                     l2171:
  3513                           
  3514                           ;main.c: 201:         uint8_t cols = (PORTB >> 4) & 0x0F;
  3515     032C  1283               	bcf	3,5	;RP0=0, select bank0
  3516     032D  1303               	bcf	3,6	;RP1=0, select bank0
  3517     032E  0806               	movf	6,w	;volatile
  3518     032F  00D8               	movwf	??_kb_scan
  3519     0330  3004               	movlw	4
  3520     0331                     u1735:
  3521     0331  1003               	clrc
  3522     0332  0CD8               	rrf	??_kb_scan,f
  3523     0333  3EFF               	addlw	-1
  3524     0334  1D03               	skipz
  3525     0335  2B31               	goto	u1735
  3526     0336  0858               	movf	??_kb_scan,w
  3527     0337  00D9               	movwf	kb_scan@cols
  3528     0338                     l2173:
  3529     0338  300F               	movlw	15
  3530     0339  05D9               	andwf	kb_scan@cols,f
  3531     033A                     l2175:
  3532                           
  3533                           ;main.c: 202:         if (cols != 0x0F) {
  3534     033A  300F               	movlw	15
  3535     033B  0659               	xorwf	kb_scan@cols,w
  3536     033C  1903               	btfsc	3,2
  3537     033D  2B3F               	goto	u1741
  3538     033E  2B40               	goto	u1740
  3539     033F                     u1741:
  3540     033F  2B63               	goto	l2193
  3541     0340                     u1740:
  3542     0340                     l2177:
  3543                           
  3544                           ;main.c: 203:             for (col = 0; col < 4; col++) {
  3545     0340  01DB               	clrf	kb_scan@col
  3546     0341                     l2183:
  3547                           
  3548                           ;main.c: 204:                 if (!(cols & (1 << col)))
  3549     0341  3001               	movlw	1
  3550     0342  00D8               	movwf	??_kb_scan
  3551     0343  0A5B               	incf	kb_scan@col,w
  3552     0344  2B47               	goto	u1754
  3553     0345                     u1755:
  3554     0345  1003               	clrc
  3555     0346  0DD8               	rlf	??_kb_scan,f
  3556     0347                     u1754:
  3557     0347  3EFF               	addlw	-1
  3558     0348  1D03               	skipz
  3559     0349  2B45               	goto	u1755
  3560     034A  0858               	movf	??_kb_scan,w
  3561     034B  0559               	andwf	kb_scan@cols,w
  3562     034C  1D03               	btfss	3,2
  3563     034D  2B4F               	goto	u1761
  3564     034E  2B50               	goto	u1760
  3565     034F                     u1761:
  3566     034F  2B5B               	goto	l2189
  3567     0350                     u1760:
  3568     0350                     l2185:
  3569                           
  3570                           ;main.c: 205:                     return (uint8_t)(row * 4 + col);
  3571     0350  085A               	movf	kb_scan@row,w
  3572     0351  00D8               	movwf	??_kb_scan
  3573     0352  3002               	movlw	2
  3574     0353                     u1775:
  3575     0353  1003               	clrc
  3576     0354  0DD8               	rlf	??_kb_scan,f
  3577     0355  3EFF               	addlw	-1
  3578     0356  1D03               	skipz
  3579     0357  2B53               	goto	u1775
  3580     0358  085B               	movf	kb_scan@col,w
  3581     0359  0758               	addwf	??_kb_scan,w
  3582     035A  2B69               	goto	l140
  3583     035B                     l2189:
  3584                           
  3585                           ;main.c: 206:             }
  3586     035B  3001               	movlw	1
  3587     035C  07DB               	addwf	kb_scan@col,f
  3588     035D                     l2191:
  3589     035D  3004               	movlw	4
  3590     035E  025B               	subwf	kb_scan@col,w
  3591     035F  1C03               	skipc
  3592     0360  2B62               	goto	u1781
  3593     0361  2B63               	goto	u1780
  3594     0362                     u1781:
  3595     0362  2B41               	goto	l2183
  3596     0363                     u1780:
  3597     0363                     l2193:
  3598                           
  3599                           ;main.c: 208:     }
  3600     0363  3001               	movlw	1
  3601     0364  07DA               	addwf	kb_scan@row,f
  3602     0365  2B0B               	goto	l2163
  3603     0366                     l135:
  3604                           
  3605                           ;main.c: 209:     PORTB = 0x0F;
  3606     0366  300F               	movlw	15
  3607     0367  0086               	movwf	6	;volatile
  3608     0368                     l2197:
  3609                           
  3610                           ;main.c: 210:     return 0xFF;
  3611     0368  30FF               	movlw	255
  3612     0369                     l140:
  3613     0369  0008               	return
  3614     036A                     __end_of_kb_scan:
  3615                           
  3616                           	psect	text22
  3617     05DE                     __ptext22:	
  3618 ;; *************** function _I2C_Slave_Init *****************
  3619 ;; Defined at:
  3620 ;;		line 215 in file "main.c"
  3621 ;; Parameters:    Size  Location     Type
  3622 ;;		None
  3623 ;; Auto vars:     Size  Location     Type
  3624 ;;		None
  3625 ;; Return value:  Size  Location     Type
  3626 ;;                  1    wreg      void 
  3627 ;; Registers used:
  3628 ;;		status,2
  3629 ;; Tracked objects:
  3630 ;;		On entry : 0/0
  3631 ;;		On exit  : 0/0
  3632 ;;		Unchanged: 0/0
  3633 ;; Data sizes:     COMMON   BANK0   BANK1
  3634 ;;      Params:         0       0       0
  3635 ;;      Locals:         0       0       0
  3636 ;;      Temps:          0       0       0
  3637 ;;      Totals:         0       0       0
  3638 ;;Total ram usage:        0 bytes
  3639 ;; Hardware stack levels used: 1
  3640 ;; Hardware stack levels required when called: 2
  3641 ;; This function calls:
  3642 ;;		Nothing
  3643 ;; This function is called by:
  3644 ;;		_main
  3645 ;; This function uses a non-reentrant model
  3646 ;;
  3647                           
  3648     05DE                     _I2C_Slave_Init:	
  3649                           ;psect for function _I2C_Slave_Init
  3650                           
  3651     05DE                     l2201:	
  3652                           ;incstack = 0
  3653                           ; Regs used in _I2C_Slave_Init: [status,2]
  3654                           
  3655                           
  3656                           ;main.c: 216:     TRISCbits.TRISC3 = 1;
  3657     05DE  1683               	bsf	3,5	;RP0=1, select bank1
  3658     05DF  1303               	bcf	3,6	;RP1=0, select bank1
  3659     05E0  1587               	bsf	7,3	;volatile
  3660                           
  3661                           ;main.c: 217:     TRISCbits.TRISC4 = 1;
  3662     05E1  1607               	bsf	7,4	;volatile
  3663                           
  3664                           ;main.c: 218:     SSPADD = 0x10 << 1;
  3665     05E2  3020               	movlw	32
  3666     05E3  0093               	movwf	19	;volatile
  3667                           
  3668                           ;main.c: 219:     SSPSTAT = 0x80;
  3669     05E4  3080               	movlw	128
  3670     05E5  0094               	movwf	20	;volatile
  3671                           
  3672                           ;main.c: 220:     SSPCON = 0x36;
  3673     05E6  3036               	movlw	54
  3674     05E7  1283               	bcf	3,5	;RP0=0, select bank0
  3675     05E8  1303               	bcf	3,6	;RP1=0, select bank0
  3676     05E9  0094               	movwf	20	;volatile
  3677                           
  3678                           ;main.c: 221:     SSPCON2 = 0x01;
  3679     05EA  3001               	movlw	1
  3680     05EB  1683               	bsf	3,5	;RP0=1, select bank1
  3681     05EC  1303               	bcf	3,6	;RP1=0, select bank1
  3682     05ED  0091               	movwf	17	;volatile
  3683     05EE                     l2203:
  3684                           
  3685                           ;main.c: 224:     rxState = 0;
  3686     05EE  1283               	bcf	3,5	;RP0=0, select bank0
  3687     05EF  1303               	bcf	3,6	;RP1=0, select bank0
  3688     05F0  01A4               	clrf	_rxState
  3689                           
  3690                           ;main.c: 225:     rxIdx = 0;
  3691     05F1  01A5               	clrf	_rxIdx
  3692                           
  3693                           ;main.c: 226:     rxExpected = 0;
  3694     05F2  01A6               	clrf	_rxExpected
  3695     05F3                     l2205:
  3696                           
  3697                           ;main.c: 229:     PIR1bits.SSPIF = 0;
  3698     05F3  118C               	bcf	12,3	;volatile
  3699     05F4                     l2207:
  3700                           
  3701                           ;main.c: 230:     PIE1bits.SSPIE = 1;
  3702     05F4  1683               	bsf	3,5	;RP0=1, select bank1
  3703     05F5  1303               	bcf	3,6	;RP1=0, select bank1
  3704     05F6  158C               	bsf	12,3	;volatile
  3705     05F7                     l2209:
  3706                           
  3707                           ;main.c: 231:     INTCONbits.PEIE = 1;
  3708     05F7  170B               	bsf	11,6	;volatile
  3709     05F8                     l2211:
  3710                           
  3711                           ;main.c: 232:     INTCONbits.GIE = 1;
  3712     05F8  178B               	bsf	11,7	;volatile
  3713     05F9                     l143:
  3714     05F9  0008               	return
  3715     05FA                     __end_of_I2C_Slave_Init:
  3716                           
  3717                           	psect	text23
  3718     01EC                     __ptext23:	
  3719 ;; *************** function _ISR *****************
  3720 ;; Defined at:
  3721 ;;		line 239 in file "main.c"
  3722 ;; Parameters:    Size  Location     Type
  3723 ;;		None
  3724 ;; Auto vars:     Size  Location     Type
  3725 ;;  data            1   11[BANK0 ] unsigned char 
  3726 ;;  dummy           1    0        unsigned char 
  3727 ;;  status          1   10[BANK0 ] unsigned char 
  3728 ;; Return value:  Size  Location     Type
  3729 ;;                  1    wreg      void 
  3730 ;; Registers used:
  3731 ;;		wreg, fsr0l, fsr0h, status,2, status,0, pclath, cstack
  3732 ;; Tracked objects:
  3733 ;;		On entry : 0/0
  3734 ;;		On exit  : 0/0
  3735 ;;		Unchanged: 0/0
  3736 ;; Data sizes:     COMMON   BANK0   BANK1
  3737 ;;      Params:         0       0       0
  3738 ;;      Locals:         0       2       0
  3739 ;;      Temps:          0       3       0
  3740 ;;      Totals:         0       5       0
  3741 ;;Total ram usage:        5 bytes
  3742 ;; Hardware stack levels used: 1
  3743 ;; Hardware stack levels required when called: 1
  3744 ;; This function calls:
  3745 ;;		i1_memcpy
  3746 ;; This function is called by:
  3747 ;;		Interrupt level 1
  3748 ;; This function uses a non-reentrant model
  3749 ;;
  3750                           
  3751     01EC                     _ISR:	
  3752                           ;psect for function _ISR
  3753                           
  3754     01EC                     i1l1763:
  3755                           
  3756                           ;main.c: 240:     if (!PIR1bits.SSPIF) return;
  3757     01EC  198C               	btfsc	12,3	;volatile
  3758     01ED  29EF               	goto	u124_21
  3759     01EE  29F0               	goto	u124_20
  3760     01EF                     u124_21:
  3761     01EF  29F1               	goto	i1l148
  3762     01F0                     u124_20:
  3763     01F0  2A76               	goto	i1l149
  3764     01F1                     i1l148:
  3765                           
  3766                           ;main.c: 242:     uint8_t dummy;;main.c: 245:     if (SSPCONbits.SSPOV) {
  3767     01F1  1F14               	btfss	20,6	;volatile
  3768     01F2  29F4               	goto	u125_21
  3769     01F3  29F5               	goto	u125_20
  3770     01F4                     u125_21:
  3771     01F4  29F7               	goto	i1l150
  3772     01F5                     u125_20:
  3773     01F5                     i1l1767:
  3774                           
  3775                           ;main.c: 246:         SSPCONbits.SSPOV = 0;
  3776     01F5  1314               	bcf	20,6	;volatile
  3777     01F6                     i1l1769:
  3778     01F6  0813               	movf	19,w	;volatile
  3779     01F7                     i1l150:	
  3780                           ;main.c: 248:     }
  3781                           
  3782                           
  3783                           ;main.c: 250:     uint8_t status = SSPSTAT & 0x2D;
  3784     01F7  1683               	bsf	3,5	;RP0=1, select bank1
  3785     01F8  1303               	bcf	3,6	;RP1=0, select bank1
  3786     01F9  0814               	movf	20,w	;volatile
  3787     01FA  1283               	bcf	3,5	;RP0=0, select bank0
  3788     01FB  1303               	bcf	3,6	;RP1=0, select bank0
  3789     01FC  00D6               	movwf	ISR@status
  3790     01FD                     i1l1771:
  3791     01FD  302D               	movlw	45
  3792     01FE  05D6               	andwf	ISR@status,f
  3793     01FF                     i1l1773:
  3794                           
  3795                           ;main.c: 253:     if (!SSPSTATbits.R_nW) {
  3796     01FF  1683               	bsf	3,5	;RP0=1, select bank1
  3797     0200  1303               	bcf	3,6	;RP1=0, select bank1
  3798     0201  1914               	btfsc	20,2	;volatile
  3799     0202  2A04               	goto	u126_21
  3800     0203  2A05               	goto	u126_20
  3801     0204                     u126_21:
  3802     0204  2A55               	goto	i1l151
  3803     0205                     u126_20:
  3804     0205                     i1l1775:
  3805                           
  3806                           ;main.c: 254:         if (!SSPSTATbits.D_nA) {
  3807     0205  1A94               	btfsc	20,5	;volatile
  3808     0206  2A08               	goto	u127_21
  3809     0207  2A09               	goto	u127_20
  3810     0208                     u127_21:
  3811     0208  2A10               	goto	i1l1785
  3812     0209                     u127_20:
  3813     0209                     i1l1777:
  3814     0209  1283               	bcf	3,5	;RP0=0, select bank0
  3815     020A  1303               	bcf	3,6	;RP1=0, select bank0
  3816     020B  0813               	movf	19,w	;volatile
  3817     020C                     i1l1779:
  3818                           
  3819                           ;main.c: 257:             rxState = 0;
  3820     020C  01A4               	clrf	_rxState
  3821     020D                     i1l1781:
  3822                           
  3823                           ;main.c: 258:             rxIdx = 0;
  3824     020D  01A5               	clrf	_rxIdx
  3825     020E                     i1l1783:
  3826                           
  3827                           ;main.c: 259:             rxExpected = 0;
  3828     020E  01A6               	clrf	_rxExpected
  3829                           
  3830                           ;main.c: 260:         } else {
  3831     020F  2A53               	goto	i1l1813
  3832     0210                     i1l1785:
  3833                           
  3834                           ;main.c: 262:             uint8_t data = SSPBUF;
  3835     0210  1283               	bcf	3,5	;RP0=0, select bank0
  3836     0211  1303               	bcf	3,6	;RP1=0, select bank0
  3837     0212  0813               	movf	19,w	;volatile
  3838     0213  00D7               	movwf	ISR@data
  3839     0214                     i1l1787:
  3840                           
  3841                           ;main.c: 264:             if (rxState == 0) {
  3842     0214  0824               	movf	_rxState,w
  3843     0215  1D03               	btfss	3,2
  3844     0216  2A18               	goto	u128_21
  3845     0217  2A19               	goto	u128_20
  3846     0218                     u128_21:
  3847     0218  2A27               	goto	i1l1797
  3848     0219                     u128_20:
  3849     0219                     i1l1789:
  3850                           
  3851                           ;main.c: 266:                 rxExpected = data;
  3852     0219  0857               	movf	ISR@data,w
  3853     021A  00A6               	movwf	_rxExpected
  3854                           
  3855                           ;main.c: 267:                 if (rxExpected > 14) rxExpected = 14;
  3856     021B  300F               	movlw	15
  3857     021C  0226               	subwf	_rxExpected,w
  3858     021D  1C03               	skipc
  3859     021E  2A20               	goto	u129_21
  3860     021F  2A21               	goto	u129_20
  3861     0220                     u129_21:
  3862     0220  2A23               	goto	i1l1793
  3863     0221                     u129_20:
  3864     0221                     i1l1791:
  3865     0221  300E               	movlw	14
  3866     0222  00A6               	movwf	_rxExpected
  3867     0223                     i1l1793:
  3868                           
  3869                           ;main.c: 268:                 rxIdx = 0;
  3870     0223  01A5               	clrf	_rxIdx
  3871     0224                     i1l1795:
  3872                           
  3873                           ;main.c: 269:                 rxState = 1;
  3874     0224  3001               	movlw	1
  3875     0225  00A4               	movwf	_rxState
  3876                           
  3877                           ;main.c: 270:             } else {
  3878     0226  2A53               	goto	i1l1813
  3879     0227                     i1l1797:
  3880                           
  3881                           ;main.c: 272:                 if (rxIdx < rxExpected) {
  3882     0227  0826               	movf	_rxExpected,w
  3883     0228  0225               	subwf	_rxIdx,w
  3884     0229  1803               	skipnc
  3885     022A  2A2C               	goto	u130_21
  3886     022B  2A2D               	goto	u130_20
  3887     022C                     u130_21:
  3888     022C  2A35               	goto	i1l1803
  3889     022D                     u130_20:
  3890     022D                     i1l1799:
  3891                           
  3892                           ;main.c: 273:                     rxTmp[rxIdx++] = (char)data;
  3893     022D  0825               	movf	_rxIdx,w
  3894     022E  3EA0               	addlw	(low (_rxTmp| 0))& (0+255)
  3895     022F  0084               	movwf	4
  3896     0230  0857               	movf	ISR@data,w
  3897     0231  1383               	bcf	3,7	;select IRP bank1
  3898     0232  0080               	movwf	0
  3899     0233                     i1l1801:
  3900     0233  3001               	movlw	1
  3901     0234  07A5               	addwf	_rxIdx,f
  3902     0235                     i1l1803:
  3903                           
  3904                           ;main.c: 275:                 if (rxIdx >= rxExpected) {
  3905     0235  0826               	movf	_rxExpected,w
  3906     0236  0225               	subwf	_rxIdx,w
  3907     0237  1C03               	skipc
  3908     0238  2A3A               	goto	u131_21
  3909     0239  2A3B               	goto	u131_20
  3910     023A                     u131_21:
  3911     023A  2A53               	goto	i1l1813
  3912     023B                     u131_20:
  3913     023B                     i1l1805:
  3914                           
  3915                           ;main.c: 277:                     rxTmp[rxIdx] = '\0';
  3916     023B  0825               	movf	_rxIdx,w
  3917     023C  3EA0               	addlw	(low (_rxTmp| 0))& (0+255)
  3918     023D  0084               	movwf	4
  3919     023E  1383               	bcf	3,7	;select IRP bank1
  3920     023F  0180               	clrf	0
  3921     0240                     i1l1807:
  3922                           
  3923                           ;main.c: 278:                     memcpy((void*)recvBuf, rxTmp, rxIdx + 1);
  3924     0240  302E               	movlw	(low (_recvBuf| 0))& (0+255)
  3925     0241  00CC               	movwf	i1memcpy@d1
  3926     0242  30A0               	movlw	(low (_rxTmp| 0))& (0+255)
  3927     0243  00CD               	movwf	i1memcpy@s1
  3928     0244  0825               	movf	_rxIdx,w
  3929     0245  3E01               	addlw	1
  3930     0246  00CE               	movwf	i1memcpy@n
  3931     0247  3000               	movlw	0
  3932     0248  1803               	skipnc
  3933     0249  3001               	movlw	1
  3934     024A  00CF               	movwf	i1memcpy@n+1
  3935     024B  118A  251F  118A   	fcall	i1_memcpy
  3936     024E                     i1l1809:
  3937                           
  3938                           ;main.c: 279:                     newMsgFlag = 1;
  3939     024E  3001               	movlw	1
  3940     024F  1283               	bcf	3,5	;RP0=0, select bank0
  3941     0250  1303               	bcf	3,6	;RP1=0, select bank0
  3942     0251  00A3               	movwf	_newMsgFlag	;volatile
  3943     0252                     i1l1811:
  3944                           
  3945                           ;main.c: 280:                     rxState = 0;
  3946     0252  01A4               	clrf	_rxState
  3947     0253                     i1l1813:
  3948                           
  3949                           ;main.c: 284:         SSPCONbits.CKP = 1;
  3950     0253  1614               	bsf	20,4	;volatile
  3951                           
  3952                           ;main.c: 285:     }
  3953     0254  2A75               	goto	i1l1833
  3954     0255                     i1l151:	
  3955                           ;main.c: 288:     else {
  3956                           
  3957                           
  3958                           ;main.c: 289:         if (!SSPSTATbits.D_nA) {
  3959     0255  1A94               	btfsc	20,5	;volatile
  3960     0256  2A58               	goto	u132_21
  3961     0257  2A59               	goto	u132_20
  3962     0258                     u132_21:
  3963     0258  2A61               	goto	i1l1823
  3964     0259                     u132_20:
  3965     0259                     i1l1815:
  3966     0259  1283               	bcf	3,5	;RP0=0, select bank0
  3967     025A  1303               	bcf	3,6	;RP1=0, select bank0
  3968     025B  0813               	movf	19,w	;volatile
  3969     025C                     i1l1817:
  3970                           
  3971                           ;main.c: 292:             txIdx = 0;
  3972     025C  01A7               	clrf	_txIdx
  3973     025D                     i1l1819:
  3974                           
  3975                           ;main.c: 294:             SSPBUF = txLen;
  3976     025D  0828               	movf	_txLen,w
  3977     025E  0093               	movwf	19	;volatile
  3978     025F                     i1l1821:
  3979                           
  3980                           ;main.c: 295:             SSPCONbits.CKP = 1;
  3981     025F  1614               	bsf	20,4	;volatile
  3982                           
  3983                           ;main.c: 296:         } else {
  3984     0260  2A75               	goto	i1l1833
  3985     0261                     i1l1823:
  3986                           
  3987                           ;main.c: 298:             if (txIdx < txLen) {
  3988     0261  1283               	bcf	3,5	;RP0=0, select bank0
  3989     0262  1303               	bcf	3,6	;RP1=0, select bank0
  3990     0263  0828               	movf	_txLen,w
  3991     0264  0227               	subwf	_txIdx,w
  3992     0265  1803               	skipnc
  3993     0266  2A68               	goto	u133_21
  3994     0267  2A69               	goto	u133_20
  3995     0268                     u133_21:
  3996     0268  2A72               	goto	i1l1829
  3997     0269                     u133_20:
  3998     0269                     i1l1825:
  3999                           
  4000                           ;main.c: 299:                 SSPBUF = (unsigned char)txBuf[txIdx++];
  4001     0269  0827               	movf	_txIdx,w
  4002     026A  3EAF               	addlw	(low (_txBuf| 0))& (0+255)
  4003     026B  0084               	movwf	4
  4004     026C  1383               	bcf	3,7	;select IRP bank1
  4005     026D  0800               	movf	0,w
  4006     026E  0093               	movwf	19	;volatile
  4007     026F                     i1l1827:
  4008     026F  3001               	movlw	1
  4009     0270  07A7               	addwf	_txIdx,f
  4010                           
  4011                           ;main.c: 300:             } else {
  4012     0271  2A74               	goto	i1l1831
  4013     0272                     i1l1829:
  4014                           
  4015                           ;main.c: 301:                 SSPBUF = 0x00;
  4016     0272  0193               	clrf	19	;volatile
  4017                           
  4018                           ;main.c: 303:                 txLen = 0;
  4019     0273  01A8               	clrf	_txLen
  4020     0274                     i1l1831:
  4021                           
  4022                           ;main.c: 305:             SSPCONbits.CKP = 1;
  4023     0274  1614               	bsf	20,4	;volatile
  4024     0275                     i1l1833:
  4025                           
  4026                           ;main.c: 309:     PIR1bits.SSPIF = 0;
  4027     0275  118C               	bcf	12,3	;volatile
  4028     0276                     i1l149:
  4029     0276  0855               	movf	??_ISR+2,w
  4030     0277  008A               	movwf	10
  4031     0278  0854               	movf	??_ISR+1,w
  4032     0279  0084               	movwf	4
  4033     027A  0E53               	swapf	??_ISR,w
  4034     027B  0083               	movwf	3
  4035     027C  0EFE               	swapf	btemp,f
  4036     027D  0E7E               	swapf	btemp,w
  4037     027E  0009               	retfie
  4038     027F                     __end_of_ISR:
  4039                           
  4040                           	psect	intentry
  4041     0004                     __pintentry:	
  4042                           ;incstack = 0
  4043 ;; hardware stack exceeded
  4044                           ; Regs used in _ISR: [wreg-fsr0h+status,2+status,0+pclath+cstack]
  4045                           
  4046     0004                     interrupt_function:
  4047     007E                     saved_w         set	btemp
  4048     0004  00FE               	movwf	btemp
  4049     0005  0E03               	swapf	3,w
  4050     0006  1283               	bcf	3,5	;RP0=0, select bank0
  4051     0007  1303               	bcf	3,6	;RP1=0, select bank0
  4052     0008  00D3               	movwf	??_ISR
  4053     0009  0804               	movf	4,w
  4054     000A  00D4               	movwf	??_ISR+1
  4055     000B  080A               	movf	10,w
  4056     000C  00D5               	movwf	??_ISR+2
  4057     000D  118A  29EC         	ljmp	_ISR
  4058                           
  4059                           	psect	text24
  4060     051F                     __ptext24:	
  4061 ;; *************** function i1_memcpy *****************
  4062 ;; Defined at:
  4063 ;;		line 4 in file "C:\Program Files\Microchip\xc8\v3.10\pic\sources\c99\common\memcpy.c"
  4064 ;; Parameters:    Size  Location     Type
  4065 ;;  d1              1    0[BANK0 ] PTR void 
  4066 ;;		 -> txBuf(15), recvBuf(15), 
  4067 ;;  s1              1    1[BANK0 ] PTR const void 
  4068 ;;		 -> rxTmp(15), sendBuf(15), 
  4069 ;;  n               2    2[BANK0 ] unsigned int 
  4070 ;; Auto vars:     Size  Location     Type
  4071 ;;  s               1    6[BANK0 ] PTR const unsigned char 
  4072 ;;		 -> rxTmp(15), sendBuf(15), 
  4073 ;;  d               1    5[BANK0 ] PTR unsigned char 
  4074 ;;		 -> txBuf(15), recvBuf(15), 
  4075 ;;  tmp             1    4[BANK0 ] unsigned char 
  4076 ;; Return value:  Size  Location     Type
  4077 ;;                  1    0[BANK0 ] PTR void 
  4078 ;; Registers used:
  4079 ;;		wreg, fsr0l, fsr0h, status,2, status,0
  4080 ;; Tracked objects:
  4081 ;;		On entry : 0/0
  4082 ;;		On exit  : 0/0
  4083 ;;		Unchanged: 0/0
  4084 ;; Data sizes:     COMMON   BANK0   BANK1
  4085 ;;      Params:         0       4       0
  4086 ;;      Locals:         0       3       0
  4087 ;;      Temps:          0       0       0
  4088 ;;      Totals:         0       7       0
  4089 ;;Total ram usage:        7 bytes
  4090 ;; Hardware stack levels used: 1
  4091 ;; This function calls:
  4092 ;;		Nothing
  4093 ;; This function is called by:
  4094 ;;		_ISR
  4095 ;; This function uses a non-reentrant model
  4096 ;;
  4097                           
  4098     051F                     i1_memcpy:	
  4099                           ;psect for function i1_memcpy
  4100                           
  4101     051F                     i1l1755:	
  4102                           ;incstack = 0
  4103 ;; hardware stack exceeded
  4104                           ; Regs used in i1_memcpy: [wreg-fsr0h+status,2+status,0]
  4105                           
  4106     051F  1283               	bcf	3,5	;RP0=0, select bank0
  4107     0520  1303               	bcf	3,6	;RP1=0, select bank0
  4108     0521  084D               	movf	i1memcpy@s1,w
  4109     0522  00D2               	movwf	i1memcpy@s
  4110     0523  084C               	movf	i1memcpy@d1,w
  4111     0524  00D1               	movwf	i1memcpy@d
  4112     0525  2D33               	goto	i1l772
  4113     0526                     i1l1757:
  4114     0526  0852               	movf	i1memcpy@s,w
  4115     0527  0084               	movwf	4
  4116     0528  1383               	bcf	3,7	;select IRP bank0
  4117     0529  0800               	movf	0,w
  4118     052A  00D0               	movwf	i1memcpy@tmp
  4119     052B                     i1l1759:
  4120     052B  3001               	movlw	1
  4121     052C  07D2               	addwf	i1memcpy@s,f
  4122     052D                     i1l1761:
  4123     052D  0851               	movf	i1memcpy@d,w
  4124     052E  0084               	movwf	4
  4125     052F  0850               	movf	i1memcpy@tmp,w
  4126     0530  0080               	movwf	0
  4127     0531  3001               	movlw	1
  4128     0532  07D1               	addwf	i1memcpy@d,f
  4129     0533                     i1l772:
  4130     0533  3001               	movlw	1
  4131     0534  02CE               	subwf	i1memcpy@n,f
  4132     0535  3000               	movlw	0
  4133     0536  1C03               	skipc
  4134     0537  03CF               	decf	i1memcpy@n+1,f
  4135     0538  02CF               	subwf	i1memcpy@n+1,f
  4136     0539  0A4E               	incf	i1memcpy@n,w
  4137     053A  1D03               	skipz
  4138     053B  2D40               	goto	u123_21
  4139     053C  0A4F               	incf	i1memcpy@n+1,w
  4140     053D  1D03               	btfss	3,2
  4141     053E  2D40               	goto	u123_21
  4142     053F  2D41               	goto	u123_20
  4143     0540                     u123_21:
  4144     0540  2D26               	goto	i1l1757
  4145     0541                     u123_20:
  4146     0541                     i1l775:
  4147     0541  0008               	return
  4148     0542                     __end_ofi1_memcpy:
  4149     0001                     ___latbits      equ	1
  4150     007E                     btemp           set	126	;btemp
  4151     007E                     btemp0          set	126
  4152     007F                     btemp1          set	127
  4153     007E                     wtemp0          set	126
  4154     007F                     wtemp0a         set	127
  4155     007F                     ttemp0a         set	127
  4156     0080                     ltemp0a         set	128
  4157                           
  4158                           	psect	config
  4159                           
  4160                           ;Config register CONFIG @ 0x2007
  4161                           ;	Oscillator Selection bits
  4162                           ;	FOSC = XT, XT oscillator
  4163                           ;	Watchdog Timer Enable bit
  4164                           ;	WDTE = OFF, WDT disabled
  4165                           ;	Power-up Timer Enable bit
  4166                           ;	PWRTE = ON, PWRT enabled
  4167                           ;	Brown-out Reset Enable bit
  4168                           ;	BOREN = ON, BOR enabled
  4169                           ;	Low-Voltage (Single-Supply) In-Circuit Serial Programming Enable bit
  4170                           ;	LVP = OFF, RB3 is digital I/O, HV on MCLR must be used for programming
  4171                           ;	Data EEPROM Memory Code Protection bit
  4172                           ;	CPD = OFF, Data EEPROM code protection off
  4173                           ;	Flash Program Memory Write Enable bits
  4174                           ;	WRT = OFF, Write protection off; all program memory may be written to by EECON control
  4175                           ;	In-Circuit Debugger Mode bit
  4176                           ;	DEBUG = 0x1, unprogrammed default
  4177                           ;	Flash Program Memory Code Protection bit
  4178                           ;	CP = OFF, Code protection off
  4179     2007                     	org	8199
  4180     2007  3F71               	dw	16241

Data Sizes:
    Strings     51
    Constant    0
    Data        16
    BSS         74
    Persistent  0
    Stack       0

Auto Spaces:
    Space          Size  Autos    Used
    COMMON            0      0       0
    BANK0            94     38      82
    BANK1            94      4      50

Pointer List with Targets:

    keyChars	PTR const unsigned char [16] size(1) Largest target is 6
		 -> STR_1(CODE[6]), STR_10(CODE[3]), STR_2(CODE[5]), STR_3(CODE[5]), 
		 -> STR_4(CODE[5]), STR_5(CODE[5]), STR_6(CODE[5]), STR_7(CODE[6]), 
		 -> STR_8(CODE[5]), STR_9(CODE[6]), NULL(NULL[0]), 

    memcpy@d	PTR unsigned char  size(1) Largest target is 15
		 -> recvBuf(BANK0[15]), txBuf(BANK1[15]), 

    memcpy@d1	PTR void  size(1) Largest target is 15
		 -> recvBuf(BANK0[15]), txBuf(BANK1[15]), 

    memcpy@s	PTR const unsigned char  size(1) Largest target is 15
		 -> rxTmp(BANK1[15]), sendBuf(BANK0[15]), 

    memcpy@s1	PTR const void  size(1) Largest target is 15
		 -> rxTmp(BANK1[15]), sendBuf(BANK0[15]), 

    memset@dest	PTR void  size(1) Largest target is 15
		 -> recvBuf(BANK0[15]), sendBuf(BANK0[15]), txBuf(BANK1[15]), 

    memset@p	PTR unsigned char  size(1) Largest target is 15
		 -> recvBuf(BANK0[15]), sendBuf(BANK0[15]), txBuf(BANK1[15]), 

    process_key@chars	PTR const unsigned char  size(1) Largest target is 6
		 -> STR_1(CODE[6]), STR_10(CODE[3]), STR_2(CODE[5]), STR_3(CODE[5]), 
		 -> STR_4(CODE[5]), STR_5(CODE[5]), STR_6(CODE[5]), STR_7(CODE[6]), 
		 -> STR_8(CODE[5]), STR_9(CODE[6]), NULL(NULL[0]), 

    sp__memcpy	PTR void  size(1) Largest target is 15
		 -> recvBuf(BANK0[15]), txBuf(BANK1[15]), 

    sp__memset	PTR void  size(1) Largest target is 15
		 -> recvBuf(BANK0[15]), sendBuf(BANK0[15]), txBuf(BANK1[15]), 

    strlen@a	PTR const unsigned char  size(2) Largest target is 15
		 -> recvBuf(BANK0[15]), STR_1(CODE[6]), STR_10(CODE[3]), STR_2(CODE[5]), 
		 -> STR_3(CODE[5]), STR_4(CODE[5]), STR_5(CODE[5]), STR_6(CODE[5]), 
		 -> STR_7(CODE[6]), STR_8(CODE[5]), STR_9(CODE[6]), NULL(NULL[0]), 

    strlen@s	PTR const unsigned char  size(2) Largest target is 15
		 -> recvBuf(BANK0[15]), STR_1(CODE[6]), STR_10(CODE[3]), STR_2(CODE[5]), 
		 -> STR_3(CODE[5]), STR_4(CODE[5]), STR_5(CODE[5]), STR_6(CODE[5]), 
		 -> STR_7(CODE[6]), STR_8(CODE[5]), STR_9(CODE[6]), NULL(NULL[0]), 


Critical Paths under _main in COMMON

    None.

Critical Paths under _ISR in COMMON

    None.

Critical Paths under _main in BANK0

    _main->_process_key
    _process_key->_lcd_refresh
    _text_replace_prev_char->_apply_case
    _text_insert_char->_apply_case
    _text_clear_send->_memset
    _lcd_refresh->_lcd_set_cursor
    _lcd_set_cursor->_lcd_cmd
    _lcd_char->_lcd_send_byte
    _lcd_init->_lcd_cmd
    _lcd_cmd->_lcd_send_byte
    _lcd_send_byte->_lcd_send_nibble
    _lcd_send_nibble->_lcd_pulse_enable

Critical Paths under _ISR in BANK0

    _ISR->i1_memcpy

Critical Paths under _main in BANK1

    None.

Critical Paths under _ISR in BANK1

    None.

Call Graph Tables:

 ---------------------------------------------------------------------------------
 (Depth) Function   	        Calls       Base Space   Used Autos Params    Refs
 ---------------------------------------------------------------------------------
 (0) _main                                                 4     4      0    6018
                                              0 BANK1      4     4      0
                     _I2C_Slave_Init
                        _buzzer_beep
                            _kb_scan
                           _lcd_init
                        _lcd_refresh
                             _memset
                    _multitap_commit
                        _process_key
 ---------------------------------------------------------------------------------
 (1) _process_key                                          5     5      0    3549
                                             33 BANK0      5     5      0
                            ___awmod
                         _apply_case
                        _buzzer_beep
                        _lcd_refresh
                             _memcpy
                    _multitap_commit
                             _strlen
                    _text_clear_send
                        _text_delete
                   _text_insert_char
             _text_replace_prev_char
 ---------------------------------------------------------------------------------
 (2) _text_replace_prev_char                               1     1      0      47
                                             17 BANK0      1     1      0
                         _apply_case (ARG)
 ---------------------------------------------------------------------------------
 (2) _text_insert_char                                     3     3      0     146
                                             17 BANK0      3     3      0
                         _apply_case (ARG)
 ---------------------------------------------------------------------------------
 (2) _text_delete                                          3     3      0      99
                                             12 BANK0      3     3      0
 ---------------------------------------------------------------------------------
 (2) _text_clear_send                                      0     0      0     173
                             _memset
 ---------------------------------------------------------------------------------
 (3) _memset                                               6     1      5     173
                                             12 BANK0      6     1      5
 ---------------------------------------------------------------------------------
 (2) _multitap_commit                                      0     0      0       0
 ---------------------------------------------------------------------------------
 (2) _memcpy                                               7     3      4     217
                                             12 BANK0      7     3      4
 ---------------------------------------------------------------------------------
 (2) _lcd_refresh                                          8     8      0    1396
                                             25 BANK0      8     8      0
                           _lcd_char
                            _lcd_cmd
                     _lcd_set_cursor
                             _strlen
 ---------------------------------------------------------------------------------
 (3) _strlen                                               4     2      2     136
                                             12 BANK0      4     2      2
 ---------------------------------------------------------------------------------
 (3) _lcd_set_cursor                                       4     3      1     427
                                             21 BANK0      4     3      1
                            _lcd_cmd
 ---------------------------------------------------------------------------------
 (3) _lcd_char                                             1     1      0     209
                                             18 BANK0      1     1      0
                      _lcd_send_byte
 ---------------------------------------------------------------------------------
 (2) _buzzer_beep                                          3     1      2      40
                                             12 BANK0      3     1      2
 ---------------------------------------------------------------------------------
 (2) _apply_case                                           5     5      0     272
                                             12 BANK0      5     5      0
 ---------------------------------------------------------------------------------
 (2) ___awmod                                              6     2      4     439
                                             12 BANK0      6     2      4
 ---------------------------------------------------------------------------------
 (1) _lcd_init                                             2     2      0     303
                                             21 BANK0      2     2      0
                            _lcd_cmd
                    _lcd_send_nibble
 ---------------------------------------------------------------------------------
 (4) _lcd_cmd                                              3     3      0     256
                                             18 BANK0      3     3      0
                      _lcd_send_byte
 ---------------------------------------------------------------------------------
 (5) _lcd_send_byte                                        3     2      1     162
                                             15 BANK0      3     2      1
                    _lcd_send_nibble
 ---------------------------------------------------------------------------------
 (6) _lcd_send_nibble                                      2     2      0      47
                                             13 BANK0      2     2      0
                   _lcd_pulse_enable
 ---------------------------------------------------------------------------------
 (7) _lcd_pulse_enable                                     1     1      0       0
                                             12 BANK0      1     1      0
 ---------------------------------------------------------------------------------
 (1) _kb_scan                                              4     4      0     328
                                             12 BANK0      4     4      0
 ---------------------------------------------------------------------------------
 (1) _I2C_Slave_Init                                       0     0      0       0
 ---------------------------------------------------------------------------------
 Estimated maximum stack depth 7
 ---------------------------------------------------------------------------------
 (Depth) Function   	        Calls       Base Space   Used Autos Params    Refs
 ---------------------------------------------------------------------------------
 (8) _ISR                                                  6     6      0     196
                                              7 BANK0      5     5      0
                           i1_memcpy
 ---------------------------------------------------------------------------------
 (9) i1_memcpy                                             7     3      4     146
                                              0 BANK0      7     3      4
 ---------------------------------------------------------------------------------
 Estimated maximum stack depth 9
 ---------------------------------------------------------------------------------

 Call Graph Graphs:

 _main (ROOT)
   _I2C_Slave_Init
   _buzzer_beep
   _kb_scan
   _lcd_init
     _lcd_cmd
       _lcd_send_byte
         _lcd_send_nibble
           _lcd_pulse_enable
     _lcd_send_nibble
   _lcd_refresh
     _lcd_char
       _lcd_send_byte
     _lcd_cmd
     _lcd_set_cursor
       _lcd_cmd
     _strlen
   _memset
   _multitap_commit
   _process_key
     ___awmod
     _apply_case
     _buzzer_beep
     _lcd_refresh
     _memcpy
     _multitap_commit
     _strlen
     _text_clear_send
       _memset
     _text_delete
     _text_insert_char
       _apply_case (ARG)
     _text_replace_prev_char
       _apply_case (ARG)

 _ISR (ROOT)
   i1_memcpy

Address spaces:
Name               Size   Autos  Total    Usage
BANK1               94      4      50     53.2%
BITBANK1            94      0       0      0.0%
BANK0               94     38      82     87.2%
BITBANK0            94      0       0      0.0%
COMMON               0      0       0      0.0%
BITCOMMON            0      0       0      0.0%
DATA                 0      0     132      0.0%
STACK                0      0       0      0.0%


Microchip Technology PIC Macro Assembler V3.10 build 20250813170317 
Symbol Table                                                                                   Thu Apr  2 20:48:24 2026

                  ?_lcd_refresh 004C                               pc 0002                     _SSPSTATbits 0094  
                            l90 0628                              l93 0585                              l87 067A  
                            l97 05C1                  ?_lcd_send_byte 005B                              fsr 0004  
                           l100 0684                             l110 05DD                             l103 03C6  
                           l130 05A3                             l202 011F                             l131 05A4  
                           l140 0369                             l125 0307                             l134 0312  
                           l143 05F9                             l135 0366                             l180 04A0  
                           l174 066C                             l167 04D3                             l186 063B  
                           l196 04F8                             l197 04FB                             l189 0694  
                           l479 041F                             l772 0510                             l781 0614  
                           l775 051E                             l787 0563                             _ISR 01EC  
                           fsr0 0004                             indf 0000                    ___awmod@sign 005D  
               ?_lcd_set_cursor 0061        __end_of_lcd_pulse_enable 067B                            ?_ISR 004C  
                          l2001 02E4                            l2011 0586                            l2003 02EF  
                          l2101 03D9                            l2013 058A                            l2005 02F3  
                          l2021 0508                            l2111 03F0                            l2103 03DE  
                          l2015 0593                            l2007 02F7                            l2023 050A  
                          l2031 04AE                            l2201 05DE                            l2113 03F4  
                          l2105 03E4                            l2121 0411                            l2009 02FD  
                          l2017 04FC                            l2041 04CD                            l2033 04B9  
                          l2025 04A4                            l2211 05F8                            l2203 05EE  
                          l2131 0370                            l2123 0416                            l2115 03FE  
                          l2107 03E7                            l2019 0503                            l2051 046A  
                          l2035 04BB                            l2043 0660                            l2205 05F3  
                          l2141 0390                            l2133 037A                            l2125 041B  
                          l2117 0404                            l2109 03EE                            l2061 0495  
                          l2053 0470                            l2037 04C5                            l2029 04AB  
                          l2301 00E1                            l2221 0041                            l2213 002F  
                          l2207 05F4                            l2151 03AB                            l2143 0397  
                          l2135 037D                            l2119 040B                            l2071 068D  
                          l2063 049B                            l2055 0474                            l2039 04CB  
                          l2047 0666                            l2311 010F                            l2303 00F6  
                          l2231 0056                            l2215 0035                            l2209 05F7  
                          l2161 0308                            l2153 03AF                            l2145 039B  
                          l2137 0381                            l2129 036A                            l2081 04E8  
                          l2073 0691                            l2065 0629                            l2057 0481  
                          l2049 0463                            l2313 011A                            l2305 0102  
                          l2241 0062                            l2217 0038                            l2225 0045  
                          l2321 0123                            l2171 032C                            l2163 030B  
                          l2155 03B3                            l2147 03A1                            l2139 038C  
                          l2091 03C7                            l2083 04F1                            l2075 04D7  
                          l2067 0637                            l2059 0483                            l2307 0109  
                          l2251 006F                            l2227 004B                            l2219 003F  
                          l2331 0134                            l2323 0125                            l2173 0338  
                          l2157 03B7                            l2149 03A5                            l2093 03CA  
                          l2077 04DD                            l2069 063A                            l2309 010C  
                          l2261 0083                            l2229 004E                            l2237 0059  
                          l2341 0164                            l2333 0137                            l2325 012A  
                          l2191 035D                            l2183 0341                            l2175 033A  
                          l2167 0316                            l2159 03BB                            l2095 03CE  
                          l2079 04E3                            l2087 04FA                            l2271 00A2  
                          l2263 008A                            l2239 005F                            l2247 0066  
                          l2351 016C                            l2343 0165                            l2335 0145  
                          l2327 012D                            l2319 0120                            l2185 0350  
                          l2177 0340                            l2193 0363                            l2169 0325  
                          l2097 03D3                            l2273 00A5                            l2265 008D  
                          l2281 00B2                            l2249 006C                            l2257 007A  
                          l2361 0173                            l2353 016D                            l2345 0167  
                          l2337 0153                            l2329 0131                            l2099 03D5  
                          l2291 00C2                            l2283 00B8                            l2275 00A8  
                          l2267 009D                            l2259 0080                            l2371 0189  
                          l2363 0177                            l2355 016E                            l2347 0169  
                          l2339 0161                            l2197 0368                            l2189 035B  
                          l2269 00A1                            l2381 01AE                            l2373 018F  
                          l2365 017E                            l2357 016F                            l2349 016A  
                          l2295 00C8                            l2383 01B7                            l2391 01C9  
                          l2375 0194                            l2367 017F                            l2359 0170  
                          l1921 0618                            l2297 00D5                            l2289 00BC  
                          l2393 01D1                            l2385 01BD                            l2377 019A  
                          l2369 0186                            l1923 0625                            l1931 057F  
                          l2299 00DB                            l2395 01D7                            l2379 01A4  
                          l2387 01C2                            l1917 066D                            l1925 0567  
                          l1933 05A8                            l1941 05C5                            l2397 01DD  
                          l2389 01C7                            l1919 0674                            l1927 056C  
                          l1935 05AE                            l1943 05CA                            l1951 0549  
                          l2399 01E0                            l1929 0578                            l1937 05B6  
                          l1945 05D2                            l1953 054F                            l1961 05FF  
                          l1939 067E                            l1947 05D9                            l1955 055B  
                          l1963 0604                            l1949 0542                            l1981 02AB  
                          l1965 0606                            l1991 02D8                            l1983 02AF  
                          l1975 0295                            l1967 027F                            l1959 05FA  
                          l1985 02B3                            l1977 029B                            l1969 0292  
                          l1987 02B9                            l1979 02A0                            l1997 02D9  
                          l1989 02CB                            l1999 02DF                            STR_1 043C  
                          STR_2 0442                            STR_3 0447                            STR_4 044C  
                          STR_5 0451                            STR_6 0456                            STR_7 0430  
                          STR_8 045B                            STR_9 0436                            u2007 01A0  
                          u2017 01E4                            u2107 0583                            u2027 058E  
                          u1500 02FD                            u2117 0678                            u2037 0376  
                          u1501 02FC                            u1430 05B6                            u1510 05A3  
                          u2127 0329                            u1415 061C                            u1431 05B5  
                          u2047 0387                            u1511 05A2                            u1600 04E3  
                          u1440 05CA                            u1520 051E                            u1425 056F  
                          u2057 0394                            u1601 04E2                            u1441 05C9  
                          u1521 051D                            u1610 04E8                            u1450 055B  
                          u1530 04AA                            u2067 039F                            u1611 04E7  
                          u1451 055A                            u1531 04A9                            u1700 0416  
                          u1620 03CE                            u1460 0614                            u1540 04C5  
                          u2077 03A9                            u1701 0415                            u1621 03CD  
                          u1461 0613                            u1541 04C4                            u1710 0311  
                          u1630 03D9                            u1470 029B                            u1550 0665  
                          u1711 0310                            u2087 03C1                            u1631 03D8  
                          u1471 029A                            u1551 0664                            u1640 03E4  
                          u1480 02B9                            u1560 046A                            u1800 003F  
                          u2097 05BC                            u1641 03E3                            u1481 02B8  
                          u1561 0469                            u1801 003E                            u1490 02DF  
                          u1570 046F                            u1810 004B                            u1491 02DE  
                          u1571 046E                            u1811 004A                            u1740 0340  
                          u1724 031E                            u1660 03F4                            u1580 0495  
                          u1900 00C7                            u1820 0056                            u1741 033F  
                          u1725 031C                            u1661 03F3                            u1581 0494  
                          u1901 00C6                            u1821 0055                            u1670 03FE  
                          u1590 04DD                            u1910 00DB                            u1830 005F  
                          u1735 0331                            u1671 03FD                            u1655 03E8  
                          u1591 04DC                            u1911 00DA                            u1831 005E  
                          u1760 0350                            u1920 00E1                            u1840 006C  
                          u1761 034F                            u1585 0491                            u1921 00E0  
                          u1841 006B                            u1754 0347                            u1690 0411  
                          u1850 0077                            u1930 017E                            u1755 0345  
                          u1691 0410                            u1675 03FA                            u1851 0075  
                          u1931 017D                            u1780 0363                            u1860 0078  
                          u1940 0194                            u1781 0362                            u1685 0405  
                          u1941 0193                            u1870 0080                            u1790 0035  
                          u1950 019A                            u1775 0353                            u1871 007F  
                          u1791 0034                            u1951 0199                            u1880 008A  
                          u1960 01AE                            u1881 0089                            u1961 01AD  
                          u1890 00B8                            u1970 01C7                            u1891 00B7  
                          u1971 01C6                            u1980 01D1                            u1981 01D0  
                          u1990 01DD                            u1991 01DC                     apply_case@c 005C  
              ?_lcd_send_nibble 004C         text_replace_prev_char@c 005D                            _main 0120  
                   main@prevKey 00D0                            btemp 007E         __end_of_text_clear_send 063C  
                          start 000F                           ??_ISR 0053                _text_insert_char 04A1  
                  lcd_refresh@i 006C                           ?_main 004C                           STR_10 0460  
               __end_of___awmod 0420                           i1l150 01F7                           i1l151 0255  
                         i1l148 01F1                           i1l149 0276                      i1memcpy@d1 004C  
                         i1l772 0533                           i1l775 0541                      i1memcpy@s1 004D  
                         _PORTA 0005                           _PORTB 0006                           _PORTC 0007  
                         _TRISA 0085                           _TRISB 0086                           _TRISC 0087  
               __end_of_kb_scan 036A                 __end_of_lcd_cmd 05C2                           _rxIdx 0025  
                         _txBuf 00AF                           _txIdx 0027                           _txLen 0028  
                         _rxTmp 00A0                           btemp0 007E                           btemp1 007F  
                         pclath 000A                    text_delete@i 005A                           status 0003  
                         wtemp0 007E                __end_ofi1_memcpy 0542          _text_replace_prev_char 065D  
                  ?_buzzer_beep 0058                 __initialization 0011                    __end_of_main 01EC  
               ??_lcd_send_byte 005C                          ??_main 00CE          buzzer_beep@duration_ms 0058  
                        _ADCON1 009F                          i1l1801 0233                          i1l1811 0252  
                        i1l1803 0235                          i1l1821 025F                          i1l1805 023B  
                        i1l1813 0253                          i1l1831 0274                          i1l1815 0259  
                        i1l1823 0261                          i1l1807 0240                          u130_20 022D  
                        i1l1761 052D                          i1l1825 0269                          i1l1817 025C  
                        i1l1833 0275                          i1l1809 024E                          u130_21 022C  
                        i1l1755 051F                          i1l1827 026F                          i1l1819 025D  
                        i1l1771 01FD                          i1l1763 01EC                          i1l1757 0526  
                        i1l1829 0272                          i1l1781 020D                          i1l1773 01FF  
                        i1l1759 052B                          i1l1791 0221                          i1l1783 020E  
                        i1l1775 0205                          i1l1767 01F5                          u123_20 0541  
                        u131_20 023B                          u123_21 0540                          u131_21 023A  
                        i1l1793 0223                          i1l1777 0209                          i1l1785 0210  
                        i1l1769 01F6                          i1l1795 0224                          i1l1787 0214  
                        i1l1779 020C                          i1l1789 0219                          i1l1797 0227  
                        i1l1799 022D                          u132_20 0259                          u124_20 01F0  
                        u132_21 0258                          u124_21 01EF                          u133_20 0269  
                        u125_20 01F5                          u133_21 0268                          u125_21 01F4  
                        u126_20 0205                          u126_21 0204                          u127_20 0209  
                        u127_21 0208                          u128_20 0219                          u128_21 0218  
                        u129_20 0221                          u129_21 0220                     i1memcpy@tmp 0050  
                        _SSPADD 0093                          _SSPCON 0014                          _SSPBUF 0013  
              ?_text_clear_send 004C                __end_of_lcd_char 0685                __end_of_lcd_init 03C7  
                     ??___awmod 0000                          _memcpy 04FC                          _memset 05FA  
               ___awmod@divisor 0058                 ___awmod@counter 005C                       ??_kb_scan 0058  
                     ??_lcd_cmd 005E                          _strlen 0542                          ltemp0a 0080  
                        saved_w 007E                  process_key@len 006F                  process_key@key 0071  
                        ttemp0a 007F                          wtemp0a 007F                    ?_process_key 004C  
       __end_of__initialization 0029                    ?_text_delete 004C                  __pcstackCOMMON 0000  
                  __pidataBANK1 064D                ??_lcd_set_cursor 0000                       ?i1_memcpy 004C  
      __end_of_text_insert_char 04D4               ?_lcd_pulse_enable 004C                      __pbssBANK0 0020  
                    __pbssBANK1 00A0              ??_lcd_pulse_enable 0058                         ISR@data 0057  
                     ISR@status 0056                      __pmaintext 0120                      __pintentry 0004  
                       ?_memcpy 0058                         ?_memset 0058                         ?_strlen 0058  
                    ??i1_memcpy 0000                      _apply_case 04D4                         _SSPCON2 0091  
                     ?_lcd_char 004C                       ?_lcd_init 004C                         _SSPSTAT 0094  
                    __stringtab 0420         ?_text_replace_prev_char 004C                         ___awmod 03C7  
                    _newMsgFlag 0023                         __ptext1 002C                         __ptext2 065D  
                       __ptext3 04A1                         __ptext4 0463                         __ptext5 0629  
                       __ptext6 05FA                         __ptext7 068D                         __ptext8 04FC  
                       __ptext9 027F                         _kb_scan 0308                         _lcd_cmd 05A5  
                       _lastKey 002A                         _recvBuf 002E                ___awmod@dividend 005A  
                       _sendBuf 003D                         _sendLen 002C                         _rxState 0024  
__end_of_text_replace_prev_char 066D               ??_multitap_commit 0000                      ??_lcd_char 0000  
                       main@key 00D1                         clrloop0 0686                      ??_lcd_init 0061  
          end_of_initialization 0029                         memcpy@d 005D                         memcpy@n 005A  
                       memcpy@s 005E                         memset@c 0059                         memset@n 005B  
                       memset@p 005D                      _rxExpected 0026                  _I2C_Slave_Init 05DE  
         __end_of_lcd_send_byte 0586                         strlen@a 005A                         strlen@s 0058  
                     _PORTAbits 0005                       _PORTCbits 0007                      kb_scan@col 005B  
                    kb_scan@row 005A                       _TRISCbits 0087                      lcd_cmd@cmd 0060  
                   ?_apply_case 004C          __end_of_I2C_Slave_Init 05FA                   ??_lcd_refresh 0065  
                     i1memcpy@d 0051                       i1memcpy@n 004E                       i1memcpy@s 0052  
             ??_lcd_send_nibble 0059                  __end_of_memcpy 051F                  __end_of_memset 0615  
                __end_of_strlen 0564             start_initialization 0011                     __end_of_ISR 027F  
             ?_text_insert_char 004C              _lcd_set_cursor$356 0062              ??_text_insert_char 005D  
               ?_I2C_Slave_Init 004C                      init_fetch0 063C                     __pdataBANK1 00BE  
                      ??_memcpy 0000                        ??_memset 0000               text_insert_char@c 005E  
             text_insert_char@i 005F                      memset@dest 0058             __end_of_lcd_refresh 0308  
                      ??_strlen 0000                       ___latbits 0001                   __pcstackBANK0 004C  
                 __pcstackBANK1 00CE                 lcd_refresh@rLen 0067                   ??_buzzer_beep 005A  
               lcd_send_byte@rs 005D                        ?___awmod 0058               lcd_send_byte@data 005B  
               _multitap_commit 068D                       __pstrings 0420                        ?_kb_scan 004C  
                      ?_lcd_cmd 004C               ??_text_clear_send 0000                       _cursorPos 002D  
             interrupt_function 0004                       clear_ram0 0685                        _PIE1bits 008C  
                      _PIR1bits 000C                     _lcd_refresh 027F             __end_of_buzzer_beep 05A5  
                     lcd_char@c 005E                     __stringbase 042F                        i1_memcpy 051F  
                     _uppercase 002B                    ??_apply_case 0058                 _lcd_refresh$361 0068  
               _lcd_refresh$363 006A                   ??_process_key 006D                   ??_text_delete 0058  
               _lcd_send_nibble 0615                       memcpy@tmp 005C         __end_of_multitap_commit 0695  
              _lcd_pulse_enable 066D              __end_of_apply_case 04FC              __end_of__stringtab 0430  
                      __ptext10 0542                        __ptext11 05C2                        __ptext20 066D  
                      __ptext12 067B                        __ptext21 0308                        __ptext13 0586  
                      __ptext22 05DE                        __ptext14 04D4                        __ptext23 01EC  
                      __ptext15 03C7                        __ptext24 051F                        __ptext16 036A  
                      __ptext17 05A5                        __ptext18 0564                        __ptext19 0615  
                      _lcd_char 067B                        _lcd_init 036A                        _keyChars 00BE  
              ??_I2C_Slave_Init 0000                        _tapIndex 0029                     _buzzer_beep 0586  
                      _tapTimer 0020             __end_of_process_key 0120             __end_of_text_delete 04A1  
      ??_text_replace_prev_char 0000                     _refreshFlag 0022                      _INTCONbits 000B  
                      memcpy@d1 0058                        memcpy@s1 0059                        init_ram0 0640  
                _apply_case$441 005A                        intlevel1 0000                  _lcd_set_cursor 05C2  
             lcd_set_cursor@col 0064         __end_of_lcd_send_nibble 0629               lcd_set_cursor@row 0061  
              process_key@chars 0070                       stringcode 042A                ?_multitap_commit 004C  
               _text_clear_send 0629                   _lcd_send_byte 0564                        stringdir 042A  
                      stringtab 0420          __end_of_lcd_set_cursor 05DE                     _process_key 002C  
                   kb_scan@cols 0059                      _SSPCONbits 0014                     _text_delete 0463  
         lcd_send_nibble@nibble 005A  
